Certificate:
    Data:
        Version: 3 (0x2)
        Serial Number: 1 (0x1)
    Signature Algorithm: sha1WithRSAEncryption
        Issuer: C=IN, ST=WB, L=Kolkata, O=PL/emailAddress=admin@pl.com, CN=PL
        Validity
            Not Before: Sep  1 07:22:16 2016 GMT
            Not After : Aug 31 07:22:16 2021 GMT
        Subject: C=IN, ST=WB, O=PL, CN=PL/emailAddress=admin@pl.com
        Subject Public Key Info:
            Public Key Algorithm: rsaEncryption
                Public-Key: (4096 bit)
                Modulus:
                    00:b7:f5:9d:b2:63:c6:e7:e6:4a:34:16:56:48:50:
                    e2:84:29:40:8f:88:9b:e7:db:43:e2:da:a1:e8:a6:
                    7c:0a:f7:90:52:19:9d:17:92:a6:d1:30:ea:21:0d:
                    8e:50:5f:93:9f:f9:58:77:c9:92:39:a6:17:60:55:
                    05:49:5f:62:88:f0:2d:37:25:bf:c7:ce:6c:fb:12:
                    5e:5a:a9:22:47:00:ab:55:4d:88:82:73:4b:43:a3:
                    73:81:bd:55:24:47:b5:bd:34:f5:75:e7:12:73:b4:
                    18:db:94:ea:f3:ae:f7:df:9e:60:c3:cd:26:6d:12:
                    08:72:c4:f9:7b:da:cd:b7:12:3b:17:8b:8f:39:6c:
                    6d:d4:b8:d8:43:38:2f:a8:9d:58:d8:b3:a3:58:7e:
                    4c:ee:19:9d:8f:0a:4d:b3:d7:fb:cb:ca:c8:f1:11:
                    33:43:c4:38:66:a9:a4:de:c2:f1:28:a7:8a:1f:47:
                    18:2e:a8:98:a1:4f:9e:c2:08:a1:06:16:0b:40:c9:
                    1b:3c:d8:0d:6b:82:88:41:c9:ca:f7:ad:e7:d3:c0:
                    f7:75:40:df:36:af:87:47:b4:e1:30:42:f3:f7:7f:
                    e1:e3:85:be:f4:42:64:8f:51:fe:2c:61:e1:59:ef:
                    6b:b3:73:ae:4a:ec:dc:32:27:8b:2a:43:a9:f1:47:
                    88:7b:b5:05:e0:d1:2a:b3:eb:93:53:fd:1e:b1:0e:
                    cf:91:11:c1:38:7e:05:51:4a:57:8d:e8:55:f0:78:
                    74:ee:e5:4d:8a:59:7d:22:44:e1:3e:2c:34:f3:a6:
                    e7:8f:d3:60:98:fe:cc:81:c0:bc:e1:35:d9:19:47:
                    ac:7f:8b:4d:cb:fa:d7:d5:71:a1:1b:dd:50:b8:c1:
                    81:dc:1b:f7:d7:e8:4a:9b:61:98:63:47:2c:82:55:
                    68:cb:1d:16:68:98:33:d0:bf:bb:c2:96:cb:38:42:
                    23:9c:7e:4b:1c:01:49:ad:08:a2:48:af:34:3b:55:
                    f4:9d:21:6a:db:48:96:41:bb:49:66:bd:bc:5e:35:
                    7e:ae:3f:0d:54:ba:f2:d2:ec:bc:8c:5f:d6:eb:7b:
                    37:27:d3:43:84:58:87:ab:3c:f4:ae:e0:55:4c:27:
                    df:94:51:5e:b3:98:ac:41:17:ee:11:e8:0b:2e:f2:
                    7f:07:20:b6:e3:63:60:b9:62:69:95:91:58:2b:84:
                    26:43:c4:ce:23:d2:a2:46:2d:34:15:e8:1c:b8:7f:
                    c1:3f:e3:a0:e0:1b:c3:22:ad:3e:e1:ea:d0:f6:75:
                    38:c1:1b:b9:df:a6:21:c8:93:a7:2b:07:92:22:22:
                    6e:91:9f:d3:1f:97:55:44:94:26:0a:ce:52:78:ba:
                    95:6e:ab
                Exponent: 65537 (0x10001)
        X509v3 extensions:
            X509v3 Extended Key Usage: 
                TLS Web Server Authentication
    Signature Algorithm: sha1WithRSAEncryption
         9a:0f:c6:09:18:15:02:3e:24:94:9c:1f:45:cf:29:47:69:78:
         db:f5:d7:79:ab:59:f6:4b:14:2e:15:4f:36:86:27:0f:f5:61:
         e6:e5:a3:04:26:ff:e3:32:cd:1e:2e:3c:56:f9:11:05:d3:9a:
         8f:51:aa:01:b3:de:7e:4f:38:25:7f:62:2d:64:3c:98:38:30:
         d5:d4:03:af:49:a9:6e:1d:2c:69:ff:e5:c3:b8:11:d6:01:e6:
         25:8f:5c:32:31:70:2d:14:9c:50:9a:a6:3f:60:1f:a3:93:80:
         ac:fe:1a:f5:54:f4:75:ec:00:2a:d3:d9:0e:fe:1f:dd:eb:e0:
         48:31:cb:a6:af:28:96:a2:2d:d2:7e:a0:0e:0c:ae:a1:0f:8d:
         cf:5f:0a:9c:5b:77:02:7e:ac:1f:f8:68:61:ef:cc:9f:36:7e:
         c8:aa:34:e1:1d:91:11:42:44:37:aa:c4:1d:6f:1b:28:3c:44:
         7a:26:eb:ae:86:05:07:51:0a:01:c4:e3:47:75:27:8f:0c:99:
         5b:06:0c:42:07:c4:6f:7b:52:70:63:3a:08:90:cd:3c:6e:3d:
         a3:9f:11:12:f2:57:8e:09:10:04:55:26:b1:a1:80:9a:19:70:
         fa:73:f3:e9:26:9a:b3:3c:1c:f8:ad:0f:c5:eb:fe:ff:e2:b8:
         47:28:7e:d4:21:14:3d:83:ef:4a:78:48:94:86:f7:87:c8:43:
         a9:4a:21:3f:cc:e3:8d:43:69:8f:17:5c:21:6c:e1:a2:4d:91:
         47:33:b1:b7:51:b9:85:32:ea:96:7c:82:e3:84:b3:cc:35:ef:
         0e:d0:67:4e:58:31:f9:37:c2:5e:6f:6f:48:ef:ec:a1:7c:bb:
         bc:c1:49:31:b7:9d:33:87:ad:2c:de:14:70:0f:32:ff:4f:e6:
         0a:0c:3a:fb:ae:dd:35:6e:a4:84:d2:b9:54:50:0c:2e:ad:4d:
         c7:a7:3b:f4:11:8a:24:06:ac:e4:bb:6c:b4:73:01:ed:40:ec:
         10:52:81:0c:fc:7d:97:73:2d:8a:03:a1:31:b8:c8:a1:7c:d1:
         1b:bd:23:23:8d:9e:0b:40:cf:ae:70:9e:5b:eb:3f:eb:93:b2:
         41:f5:aa:3a:d5:ea:04:b1:9d:ec:2b:64:6e:af:89:d9:f4:67:
         06:52:3d:c7:52:15:5a:2c:20:b2:13:b0:fb:a9:9d:6a:cf:83:
         0c:cd:f3:c1:29:c8:d7:b0:b5:75:d1:e6:40:e4:43:a3:74:da:
         f5:48:00:77:99:2a:0a:b2:fe:61:9e:2c:ec:1e:3b:be:20:41:
         77:3f:86:90:51:3e:55:a8:35:0b:02:e0:e6:67:9e:1b:50:51:
         5d:7f:d8:f3:79:86:59:fb
-----BEGIN CERTIFICATE-----
MIIFRjCCAy6gAwIBAgIBATANBgkqhkiG9w0BAQUFADBjMQswCQYDVQQGEwJJTjEL
MAkGA1UECBMCV0IxEDAOBgNVBAcTB0tvbGthdGExCzAJBgNVBAoTAlBMMRswGQYJ
KoZIhvcNAQkBFgxhZG1pbkBwbC5jb20xCzAJBgNVBAMTAlBMMB4XDTE2MDkwMTA3
MjIxNloXDTIxMDgzMTA3MjIxNlowUTELMAkGA1UEBhMCSU4xCzAJBgNVBAgTAldC
MQswCQYDVQQKEwJQTDELMAkGA1UEAxMCUEwxGzAZBgkqhkiG9w0BCQEWDGFkbWlu
QHBsLmNvbTCCAiIwDQYJKoZIhvcNAQEBBQADggIPADCCAgoCggIBALf1nbJjxufm
SjQWVkhQ4oQpQI+Im+fbQ+LaoeimfAr3kFIZnReSptEw6iENjlBfk5/5WHfJkjmm
F2BVBUlfYojwLTclv8fObPsSXlqpIkcAq1VNiIJzS0Ojc4G9VSRHtb009XXnEnO0
GNuU6vOu99+eYMPNJm0SCHLE+XvazbcSOxeLjzlsbdS42EM4L6idWNizo1h+TO4Z
nY8KTbPX+8vKyPERM0PEOGappN7C8Sinih9HGC6omKFPnsIIoQYWC0DJGzzYDWuC
iEHJyvet59PA93VA3zavh0e04TBC8/d/4eOFvvRCZI9R/ixh4Vnva7Nzrkrs3DIn
iypDqfFHiHu1BeDRKrPrk1P9HrEOz5ERwTh+BVFKV43oVfB4dO7lTYpZfSJE4T4s
NPOm54/TYJj+zIHAvOE12RlHrH+LTcv619VxoRvdULjBgdwb99foSpthmGNHLIJV
aMsdFmiYM9C/u8KWyzhCI5x+SxwBSa0IokivNDtV9J0hattIlkG7SWa9vF41fq4/
DVS68tLsvIxf1ut7NyfTQ4RYh6s89K7gVUwn35RRXrOYrEEX7hHoCy7yfwcgtuNj
YLliaZWRWCuEJkPEziPSokYtNBXoHLh/wT/joOAbwyKtPuHq0PZ1OMEbud+mIciT
pysHkiIibpGf0x+XVUSUJgrOUni6lW6rAgMBAAGjFzAVMBMGA1UdJQQMMAoGCCsG
AQUFBwMBMA0GCSqGSIb3DQEBBQUAA4ICAQCaD8YJGBUCPiSUnB9FzylHaXjb9dd5
q1n2SxQuFU82hicP9WHm5aMEJv/jMs0eLjxW+REF05qPUaoBs95+Tzglf2ItZDyY
ODDV1AOvSaluHSxp/+XDuBHWAeYlj1wyMXAtFJxQmqY/YB+jk4Cs/hr1VPR17AAq
09kO/h/d6+BIMcumryiWoi3SfqAODK6hD43PXwqcW3cCfqwf+Ghh78yfNn7IqjTh
HZERQkQ3qsQdbxsoPER6JuuuhgUHUQoBxONHdSePDJlbBgxCB8Rve1JwYzoIkM08
bj2jnxES8leOCRAEVSaxoYCaGXD6c/PpJpqzPBz4rQ/F6/7/4rhHKH7UIRQ9g+9K
eEiUhveHyEOpSiE/zOONQ2mPF1whbOGiTZFHM7G3UbmFMuqWfILjhLPMNe8O0GdO
WDH5N8Jeb29I7+yhfLu8wUkxt50zh60s3hRwDzL/T+YKDDr7rt01bqSE0rlUUAwu
rU3Hpzv0EYokBqzku2y0cwHtQOwQUoEM/H2Xcy2KA6ExuMihfNEbvSMjjZ4LQM+u
cJ5b6z/rk7JB9ao61eoEsZ3sK2Rur4nZ9GcGUj3HUhVaLCCyE7D7qZ1qz4MMzfPB
KcjXsLV10eZA5EOjdNr1SAB3mSoKsv5hnizsHju+IEF3P4aQUT5VqDULAuDmZ54b
UFFdf9jzeYZZ+w==
-----END CERTIFICATE-----
