Certificate:
    Data:
        Version: 3 (0x2)
        Serial Number: 2 (0x2)
    Signature Algorithm: sha1WithRSAEncryption
        Issuer: C=IN, ST=WB, L=Kolkata, O=PL/emailAddress=admin@pl.com, CN=PL
        Validity
            Not Before: Sep  1 07:25:58 2016 GMT
            Not After : Sep  1 07:25:58 2017 GMT
        Subject: C=IN, ST=WB, O=PL, CN=user@pl.com/emailAddress=user@pl.com
        Subject Public Key Info:
            Public Key Algorithm: rsaEncryption
                Public-Key: (4096 bit)
                Modulus:
                    00:b0:f1:a7:5e:04:e5:8b:4e:e8:5e:8c:ca:77:64:
                    c1:7e:4b:ec:ea:3d:33:67:a2:e9:ca:6e:74:ad:71:
                    67:87:c6:6a:16:5e:21:7a:93:28:2e:9a:fd:e5:7c:
                    36:f8:24:38:0a:f7:e3:11:76:65:3e:e9:b4:c8:76:
                    a6:8c:e4:de:0b:6e:f1:ff:0b:1a:fd:b7:88:d3:96:
                    15:da:b6:08:01:bf:ea:3a:18:f7:1b:e8:50:32:78:
                    86:60:e6:73:2f:f2:9a:d6:4b:e0:87:bf:a1:d0:ec:
                    f0:e7:69:55:1f:dc:87:0a:33:6a:b9:a6:d6:88:e8:
                    82:66:2f:10:dd:69:23:4b:6f:aa:5a:32:ec:77:42:
                    90:0e:28:de:92:74:0e:dd:9b:59:53:0d:ee:2e:ce:
                    ff:03:6b:89:31:a4:61:2c:d4:7a:f4:b2:15:d2:13:
                    1a:09:3b:e3:33:1d:f6:f8:4b:b6:34:7d:79:38:74:
                    fe:23:13:37:0a:32:20:16:b1:62:63:69:ac:0c:1a:
                    ad:76:ee:04:6b:e4:79:37:50:9e:d9:ee:28:e5:a4:
                    6a:18:2d:9f:1c:20:72:95:d8:0f:8d:71:21:aa:56:
                    91:13:4d:1e:b7:41:1c:9a:32:bb:88:38:3b:36:da:
                    f8:6b:37:07:03:95:58:f3:3f:8f:df:bb:ac:fb:44:
                    01:46:b4:d7:4c:37:dc:6b:4e:43:a2:0e:e8:99:06:
                    9c:b6:c2:a6:75:fd:56:82:00:98:49:74:f1:f1:6f:
                    d3:bd:56:3d:dd:da:2c:8f:8e:89:cb:b6:1b:35:55:
                    ae:59:4a:f9:66:40:af:d3:a0:45:f1:4e:3e:66:d8:
                    a1:90:a1:46:1c:1c:ed:66:2e:3b:57:65:6b:c5:a4:
                    8e:81:7e:5e:72:f3:b7:de:73:72:65:bf:69:1f:a8:
                    04:b8:ee:c8:f7:07:29:86:24:27:9d:21:49:56:77:
                    b9:25:3f:61:33:ae:cf:6c:f1:9d:91:81:27:4c:91:
                    b2:30:d9:54:34:49:36:f7:a3:df:ae:d7:54:6d:2f:
                    32:b0:27:c7:d9:e2:9c:de:58:5f:34:4e:05:a7:48:
                    bb:d9:ed:5a:4b:62:e8:d7:af:a9:a5:3a:b0:b6:f5:
                    12:5e:f0:f4:04:c6:f2:f2:47:19:87:75:13:f9:b0:
                    3e:ba:7c:ce:1a:25:1f:db:91:6b:12:99:8e:60:4a:
                    00:d7:30:3f:65:b4:69:50:32:1b:6b:d0:53:a7:50:
                    ea:61:be:3e:62:28:f6:26:96:31:61:2b:01:ba:44:
                    e4:db:16:d2:4b:f4:6d:a3:13:a1:d6:ed:aa:3a:da:
                    2c:1f:b2:c1:d4:69:79:0a:a8:aa:24:ce:b7:52:ea:
                    9a:41:d1
                Exponent: 65537 (0x10001)
        X509v3 extensions:
            X509v3 Extended Key Usage: 
                TLS Web Client Authentication
    Signature Algorithm: sha1WithRSAEncryption
         84:e1:f8:f9:f3:28:c8:49:2f:70:bb:2b:97:6f:ce:44:39:79:
         82:40:d4:c4:79:60:77:be:39:b7:5f:b6:2b:f7:4f:5a:41:ea:
         b6:ee:d4:8e:48:df:c8:7a:85:47:76:51:82:ba:5e:0e:81:2e:
         75:e3:6c:11:e6:25:0c:ea:42:9e:5b:10:68:2d:cd:2e:30:7e:
         ff:0f:91:82:08:b5:b7:a2:02:f0:6b:66:9f:24:64:ec:d3:f0:
         42:1d:22:24:af:25:6a:6e:2f:72:cb:0a:4b:d0:24:27:8f:ef:
         ff:27:e7:77:d6:e6:1a:70:0b:56:df:cb:21:70:38:dd:01:87:
         4d:b8:43:3e:6e:99:00:2a:83:37:50:e9:a4:4f:b3:be:e7:d1:
         3a:3d:98:d8:cd:5f:43:a3:e8:03:44:b4:49:16:78:7c:62:0a:
         d8:47:af:fd:bb:11:d5:e6:e6:ce:fd:7d:48:7e:1b:ad:69:bc:
         ae:be:d2:5f:c1:37:b3:ea:77:36:07:51:ad:5a:b1:3c:6c:ad:
         2b:9a:bc:9c:79:67:71:80:f6:bb:b7:3e:45:68:71:ef:20:2a:
         47:4f:b5:bb:a8:3a:a2:ce:3a:ec:08:b8:39:c0:5e:94:30:4c:
         c8:06:78:65:fd:2a:e8:99:ad:63:a6:56:d6:31:74:4b:1e:92:
         7c:41:6e:bd:d1:53:9c:f9:e1:83:62:ca:82:07:5a:67:09:26:
         92:ae:3f:f9:f8:e5:28:4b:8b:dd:f3:ae:14:b3:1a:4f:e8:85:
         21:f3:22:de:b2:8e:76:a4:1d:cf:75:e9:0d:bb:b9:a4:23:58:
         b1:07:3e:82:19:3a:10:3d:93:aa:b3:41:a8:53:b9:aa:2b:13:
         09:bb:bb:47:33:58:e8:f4:4f:d6:69:73:46:f7:6f:c1:ad:59:
         23:38:c5:99:65:af:43:3d:b3:ae:1a:ec:a8:06:5c:b6:31:0c:
         e0:fe:3f:37:c0:25:90:ec:be:93:65:2d:f9:c6:52:d4:a5:88:
         71:a0:80:69:48:34:5a:ae:21:ad:a4:82:de:ee:19:2b:5c:c1:
         94:e9:b0:66:bf:21:e2:b5:03:ac:cb:ff:0d:e3:38:f9:04:66:
         78:94:27:33:2c:c3:4c:e8:7a:b3:1a:7c:8a:0e:77:1c:a6:47:
         28:e0:8a:e6:27:9a:90:2b:b1:c4:27:56:0a:de:c9:09:9c:2d:
         12:d3:7b:b8:ca:37:0d:bc:9b:ce:25:bc:12:b0:7a:ad:14:27:
         03:c7:da:b0:aa:dc:46:4e:ff:b7:f2:af:28:eb:14:25:a4:92:
         a7:06:3e:e1:d2:be:7a:c8:ba:b2:95:fd:86:15:91:d1:72:e7:
         d6:5e:ee:20:7c:95:b1:6c
-----BEGIN CERTIFICATE-----
MIIFTjCCAzagAwIBAgIBAjANBgkqhkiG9w0BAQUFADBjMQswCQYDVQQGEwJJTjEL
MAkGA1UECBMCV0IxEDAOBgNVBAcTB0tvbGthdGExCzAJBgNVBAoTAlBMMRswGQYJ
KoZIhvcNAQkBFgxhZG1pbkBwbC5jb20xCzAJBgNVBAMTAlBMMB4XDTE2MDkwMTA3
MjU1OFoXDTE3MDkwMTA3MjU1OFowWTELMAkGA1UEBhMCSU4xCzAJBgNVBAgTAldC
MQswCQYDVQQKEwJQTDEUMBIGA1UEAxQLdXNlckBwbC5jb20xGjAYBgkqhkiG9w0B
CQEWC3VzZXJAcGwuY29tMIICIjANBgkqhkiG9w0BAQEFAAOCAg8AMIICCgKCAgEA
sPGnXgTli07oXozKd2TBfkvs6j0zZ6Lpym50rXFnh8ZqFl4hepMoLpr95Xw2+CQ4
CvfjEXZlPum0yHamjOTeC27x/wsa/beI05YV2rYIAb/qOhj3G+hQMniGYOZzL/Ka
1kvgh7+h0Ozw52lVH9yHCjNquabWiOiCZi8Q3WkjS2+qWjLsd0KQDijeknQO3ZtZ
Uw3uLs7/A2uJMaRhLNR69LIV0hMaCTvjMx32+Eu2NH15OHT+IxM3CjIgFrFiY2ms
DBqtdu4Ea+R5N1Ce2e4o5aRqGC2fHCByldgPjXEhqlaRE00et0EcmjK7iDg7Ntr4
azcHA5VY8z+P37us+0QBRrTXTDfca05Dog7omQactsKmdf1WggCYSXTx8W/TvVY9
3dosj46Jy7YbNVWuWUr5ZkCv06BF8U4+ZtihkKFGHBztZi47V2VrxaSOgX5ecvO3
3nNyZb9pH6gEuO7I9wcphiQnnSFJVne5JT9hM67PbPGdkYEnTJGyMNlUNEk296Pf
rtdUbS8ysCfH2eKc3lhfNE4Fp0i72e1aS2Lo16+ppTqwtvUSXvD0BMby8kcZh3UT
+bA+unzOGiUf25FrEpmOYEoA1zA/ZbRpUDIba9BTp1DqYb4+Yij2JpYxYSsBukTk
2xbSS/RtoxOh1u2qOtosH7LB1Gl5CqiqJM63UuqaQdECAwEAAaMXMBUwEwYDVR0l
BAwwCgYIKwYBBQUHAwIwDQYJKoZIhvcNAQEFBQADggIBAITh+PnzKMhJL3C7K5dv
zkQ5eYJA1MR5YHe+Obdftiv3T1pB6rbu1I5I38h6hUd2UYK6Xg6BLnXjbBHmJQzq
Qp5bEGgtzS4wfv8PkYIItbeiAvBrZp8kZOzT8EIdIiSvJWpuL3LLCkvQJCeP7/8n
53fW5hpwC1bfyyFwON0Bh024Qz5umQAqgzdQ6aRPs77n0To9mNjNX0Oj6ANEtEkW
eHxiCthHr/27EdXm5s79fUh+G61pvK6+0l/BN7PqdzYHUa1asTxsrSuavJx5Z3GA
9ru3PkVoce8gKkdPtbuoOqLOOuwIuDnAXpQwTMgGeGX9KuiZrWOmVtYxdEseknxB
br3RU5z54YNiyoIHWmcJJpKuP/n45ShLi93zrhSzGk/ohSHzIt6yjnakHc916Q27
uaQjWLEHPoIZOhA9k6qzQahTuaorEwm7u0czWOj0T9Zpc0b3b8GtWSM4xZllr0M9
s64a7KgGXLYxDOD+PzfAJZDsvpNlLfnGUtSliHGggGlINFquIa2kgt7uGStcwZTp
sGa/IeK1A6zL/w3jOPkEZniUJzMsw0zoerMafIoOdxymRyjgiuYnmpArscQnVgre
yQmcLRLTe7jKNw28m84lvBKweq0UJwPH2rCq3EZO/7fyryjrFCWkkqcGPuHSvnrI
urKV/YYVkdFy59Ze7iB8lbFs
-----END CERTIFICATE-----
