Certificate:
    Data:
        Version: 3 (0x2)
        Serial Number: 2 (0x2)
    Signature Algorithm: sha1WithRSAEncryption
        Issuer: C=IN, ST=WB, L=Kolkata, O=Poziom Labs/emailAddress=admin@plcom, CN=Poziom Labs
        Validity
            Not Before: Aug 30 12:00:36 2016 GMT
            Not After : Aug 30 12:00:36 2017 GMT
        Subject: C=IN, ST=WB, O=Poziom Labs, CN=user-pl.com/emailAddress=user@pl.com
        Subject Public Key Info:
            Public Key Algorithm: rsaEncryption
                Public-Key: (4096 bit)
                Modulus:
                    00:ec:bc:4c:1a:4f:aa:5e:97:df:14:c8:2c:51:a1:
                    cd:bc:d4:c0:7d:c4:a0:1e:29:1b:a4:d6:8c:f4:94:
                    59:93:56:52:3f:e3:52:62:e2:bf:22:0b:95:9d:8c:
                    5e:ca:03:48:b1:5e:87:ff:47:66:57:99:f1:fc:87:
                    c2:21:c9:e5:7c:4b:4d:36:ba:70:6e:4f:9d:75:04:
                    d0:31:35:d7:83:04:2e:58:79:33:5b:d3:ba:ab:e1:
                    48:81:0f:7f:da:f5:cf:1f:6d:06:8e:5d:3e:48:f0:
                    14:de:0b:cb:6a:80:57:c4:fb:57:5c:a6:52:9e:a1:
                    94:30:f5:12:74:da:3b:5d:3f:5e:85:8e:17:6f:37:
                    22:97:62:00:ad:b4:c0:53:d0:1f:f3:6f:88:0b:99:
                    2b:f9:b3:22:b6:ed:d5:b3:82:88:ee:c0:38:a0:23:
                    2b:84:7e:14:7c:b9:be:b0:4e:76:3a:d7:7f:59:54:
                    f6:85:f6:bc:19:ee:18:25:01:46:b3:04:61:e5:f5:
                    c3:87:5c:9f:ce:44:f4:2a:aa:a5:cd:b3:9e:88:db:
                    ac:7d:c9:db:02:c0:24:60:96:a0:f5:69:54:94:a5:
                    25:a3:fe:33:34:b5:9e:3a:14:51:2a:94:be:50:87:
                    ce:1a:df:5c:e5:b3:e8:e4:4c:f0:bb:8b:d9:67:ca:
                    3c:9d:4e:28:d0:2d:fe:b6:4a:55:2f:4c:cd:c1:23:
                    03:ec:5f:64:97:4e:6d:a2:da:63:99:96:2a:c9:37:
                    a0:fa:d6:4a:3f:ef:2d:e2:13:0e:00:91:ee:da:46:
                    51:be:10:d4:82:f9:0f:e5:37:86:1e:3e:c4:3f:a9:
                    cc:42:c4:d7:d0:0d:df:82:02:e2:24:be:eb:7c:f0:
                    36:eb:ff:74:13:84:aa:b8:30:14:2b:e1:07:52:f4:
                    46:af:a1:e5:ac:a7:2d:76:02:54:d9:f2:0b:45:dc:
                    60:6b:81:bb:cf:00:4c:5b:4b:b8:42:d9:a2:0c:34:
                    65:ba:55:42:48:7d:49:b3:8b:8e:98:38:f9:79:c4:
                    17:d5:c0:45:62:ac:bd:80:83:6c:d4:16:4a:b9:e8:
                    37:b8:7e:88:24:f9:da:50:67:47:17:cc:74:ff:40:
                    3b:b9:a3:45:96:0c:7c:4d:85:02:23:0d:89:06:12:
                    7c:42:46:17:bd:72:9e:4c:57:91:1e:29:68:f0:f7:
                    3d:1c:84:c4:8c:a0:fe:b0:4d:fc:ed:83:a3:fd:83:
                    41:a8:0f:d8:bd:f9:d3:34:bd:c2:6e:9e:50:ac:c1:
                    cf:9c:15:38:95:7b:73:29:b1:80:74:24:8d:c7:be:
                    d1:bf:13:de:a3:43:ed:72:93:82:98:8f:72:52:7f:
                    87:f2:31
                Exponent: 65537 (0x10001)
        X509v3 extensions:
            X509v3 Extended Key Usage: 
                TLS Web Client Authentication
    Signature Algorithm: sha1WithRSAEncryption
         82:f6:89:13:e4:00:d2:52:55:bc:2c:e5:b1:cc:b0:5c:bb:1d:
         0b:86:7f:f7:cd:90:8d:6d:b4:1a:a7:be:fa:ec:2d:55:a8:27:
         ac:b8:c2:00:d0:ad:d8:a4:02:53:cd:68:7d:b4:06:2a:80:a2:
         c6:d4:55:e4:04:b7:1e:b0:d7:42:a2:d2:99:77:35:10:bd:d4:
         49:69:5d:81:06:47:15:1f:85:c9:0d:ff:e6:96:42:22:f2:4b:
         c6:0b:ca:63:d5:0c:e1:df:44:9d:04:71:01:4e:ef:95:a4:8f:
         87:cf:a5:06:d1:d1:7a:b5:5d:80:9e:c6:1f:66:b4:51:c1:4d:
         72:b7:af:78:ec:e2:5c:59:13:80:22:8b:7a:2c:59:ff:51:cb:
         2a:8f:c7:68:af:c8:47:51:a0:e0:e6:32:8d:2d:b9:2f:b8:89:
         5b:69:ae:fe:86:b1:5f:db:0d:64:85:6b:6d:e7:9c:d4:9b:c7:
         ed:ca:ce:10:2c:3b:7a:46:b3:3e:c6:59:5d:6b:f3:a0:0a:d6:
         73:05:80:f2:00:c6:6a:0a:0e:09:00:b4:eb:75:5a:cf:0e:d1:
         d8:5b:9f:06:c2:c9:4f:96:6d:74:3f:ab:99:f4:16:a0:b8:5e:
         07:11:e7:6e:58:1f:24:73:9e:77:2a:2c:38:81:16:fb:60:c8:
         1a:a2:89:e4:9b:75:f9:85:08:9c:6b:ce:61:6f:ba:f1:cb:6b:
         fc:a0:0a:ec:76:0b:42:73:60:4e:29:f5:be:bb:26:12:34:dd:
         84:bc:59:a8:88:8f:55:fa:bf:d6:99:c6:a3:ec:d4:38:a1:76:
         0b:19:70:3c:82:93:a0:1f:65:52:24:38:2a:b0:41:0c:4e:8b:
         da:19:a8:7b:b2:c3:ba:8d:ad:52:e5:88:f9:94:94:32:d1:bc:
         ea:3a:13:1b:86:91:88:2e:16:4f:df:c5:79:ac:73:e0:9f:ed:
         89:97:b9:3a:8e:a2:d6:87:91:34:c8:4f:8c:57:00:42:78:c7:
         c8:59:d5:c7:fc:2c:ae:ee:31:32:4c:9f:81:4d:29:e1:7b:06:
         23:72:91:43:2f:00:b3:c2:bc:33:d4:a6:9c:39:6e:90:39:fb:
         4b:4f:4e:b2:b8:cb:ac:0b:44:a4:da:3f:36:19:2c:73:ac:52:
         71:93:a4:0e:6f:94:f1:26:72:6c:c8:d4:11:a9:b3:96:d4:f1:
         87:ef:cc:fe:4a:be:90:9e:e1:f9:3f:e3:ef:97:fd:24:79:21:
         c8:71:d6:30:26:07:e7:87:31:d6:d3:49:9d:f8:3d:6e:87:75:
         75:dc:2a:58:63:5a:d6:25:3c:71:4b:e2:8d:cf:f4:98:af:34:
         96:4e:61:63:c1:27:72:cd
-----BEGIN CERTIFICATE-----
MIIFaDCCA1CgAwIBAgIBAjANBgkqhkiG9w0BAQUFADB0MQswCQYDVQQGEwJJTjEL
MAkGA1UECBMCV0IxEDAOBgNVBAcTB0tvbGthdGExFDASBgNVBAoTC1BvemlvbSBM
YWJzMRowGAYJKoZIhvcNAQkBFgthZG1pbkBwbGNvbTEUMBIGA1UEAxMLUG96aW9t
IExhYnMwHhcNMTYwODMwMTIwMDM2WhcNMTcwODMwMTIwMDM2WjBiMQswCQYDVQQG
EwJJTjELMAkGA1UECBMCV0IxFDASBgNVBAoTC1BvemlvbSBMYWJzMRQwEgYDVQQD
Ewt1c2VyLXBsLmNvbTEaMBgGCSqGSIb3DQEJARYLdXNlckBwbC5jb20wggIiMA0G
CSqGSIb3DQEBAQUAA4ICDwAwggIKAoICAQDsvEwaT6pel98UyCxRoc281MB9xKAe
KRuk1oz0lFmTVlI/41Ji4r8iC5WdjF7KA0ixXof/R2ZXmfH8h8IhyeV8S002unBu
T511BNAxNdeDBC5YeTNb07qr4UiBD3/a9c8fbQaOXT5I8BTeC8tqgFfE+1dcplKe
oZQw9RJ02jtdP16FjhdvNyKXYgCttMBT0B/zb4gLmSv5syK27dWzgojuwDigIyuE
fhR8ub6wTnY6139ZVPaF9rwZ7hglAUazBGHl9cOHXJ/ORPQqqqXNs56I26x9ydsC
wCRglqD1aVSUpSWj/jM0tZ46FFEqlL5Qh84a31zls+jkTPC7i9lnyjydTijQLf62
SlUvTM3BIwPsX2SXTm2i2mOZlirJN6D61ko/7y3iEw4Ake7aRlG+ENSC+Q/lN4Ye
PsQ/qcxCxNfQDd+CAuIkvut88Dbr/3QThKq4MBQr4QdS9EavoeWspy12AlTZ8gtF
3GBrgbvPAExbS7hC2aIMNGW6VUJIfUmzi46YOPl5xBfVwEVirL2Ag2zUFkq56De4
fogk+dpQZ0cXzHT/QDu5o0WWDHxNhQIjDYkGEnxCRhe9cp5MV5EeKWjw9z0chMSM
oP6wTfztg6P9g0GoD9i9+dM0vcJunlCswc+cFTiVe3MpsYB0JI3HvtG/E96jQ+1y
k4KYj3JSf4fyMQIDAQABoxcwFTATBgNVHSUEDDAKBggrBgEFBQcDAjANBgkqhkiG
9w0BAQUFAAOCAgEAgvaJE+QA0lJVvCzlscywXLsdC4Z/982QjW20Gqe++uwtVagn
rLjCANCt2KQCU81ofbQGKoCixtRV5AS3HrDXQqLSmXc1EL3USWldgQZHFR+FyQ3/
5pZCIvJLxgvKY9UM4d9EnQRxAU7vlaSPh8+lBtHRerVdgJ7GH2a0UcFNcreveOzi
XFkTgCKLeixZ/1HLKo/HaK/IR1Gg4OYyjS25L7iJW2mu/oaxX9sNZIVrbeec1JvH
7crOECw7ekazPsZZXWvzoArWcwWA8gDGagoOCQC063Vazw7R2FufBsLJT5ZtdD+r
mfQWoLheBxHnblgfJHOedyosOIEW+2DIGqKJ5Jt1+YUInGvOYW+68ctr/KAK7HYL
QnNgTin1vrsmEjTdhLxZqIiPVfq/1pnGo+zUOKF2CxlwPIKToB9lUiQ4KrBBDE6L
2hmoe7LDuo2tUuWI+ZSUMtG86joTG4aRiC4WT9/Feaxz4J/tiZe5Oo6i1oeRNMhP
jFcAQnjHyFnVx/wsru4xMkyfgU0p4XsGI3KRQy8As8K8M9SmnDlukDn7S09OsrjL
rAtEpNo/Nhksc6xScZOkDm+U8SZybMjUEamzltTxh+/M/kq+kJ7h+T/j75f9JHkh
yHHWMCYH54cx1tNJnfg9bod1ddwqWGNa1iU8cUvijc/0mK80lk5hY8Encs0=
-----END CERTIFICATE-----
