Certificate:
    Data:
        Version: 3 (0x2)
        Serial Number: 3 (0x3)
    Signature Algorithm: sha1WithRSAEncryption
        Issuer: C=IN, ST=WB, L=Kolkata, O=PL/emailAddress=admin@pl.com, CN=PL
        Validity
            Not Before: Sep  1 12:36:01 2016 GMT
            Not After : Sep  1 12:36:01 2017 GMT
        Subject: C=IN, ST=WB, O=PL, CN=user1@pl.com/emailAddress=user1@pl.com
        Subject Public Key Info:
            Public Key Algorithm: rsaEncryption
                Public-Key: (4096 bit)
                Modulus:
                    00:cc:6f:72:d4:d3:7d:49:ea:4c:c4:1d:61:84:10:
                    5a:5a:3a:23:52:e0:35:31:6f:0d:ed:63:6f:77:2e:
                    8e:63:46:7a:cc:03:4e:ba:de:71:f4:df:80:2c:7b:
                    cf:32:ad:15:64:b2:01:2e:96:29:50:b1:be:1c:ca:
                    16:3e:9b:7b:ae:02:1a:a0:29:69:b8:58:8b:44:88:
                    07:90:2c:76:5a:34:79:50:4b:48:f1:90:95:5f:78:
                    83:5b:d9:bc:1e:36:44:4e:29:3e:ed:82:d2:c1:07:
                    77:ff:4b:87:57:dc:a6:f5:35:0d:f1:e2:fe:c0:34:
                    75:99:fb:17:5e:90:ba:45:a5:04:76:f7:6a:c1:12:
                    24:7c:b8:b9:29:dd:c1:50:8a:47:00:39:1e:8a:ac:
                    20:79:1f:cc:32:70:0f:5c:f8:e0:62:f5:8a:bb:96:
                    d9:53:39:6b:74:bb:33:aa:7a:72:9b:dd:8c:c5:96:
                    c3:22:27:7a:07:cc:4e:65:16:79:cf:42:1a:32:05:
                    ff:83:dd:d8:c7:ea:81:db:ad:a3:a8:4a:c8:e1:55:
                    51:8c:f3:b4:3c:aa:46:00:ef:22:57:35:a5:4c:6d:
                    64:9e:77:77:24:29:be:0e:a0:e7:e4:ba:c9:ee:7c:
                    60:d3:9f:8e:4f:6f:e1:c2:b6:53:36:fe:df:ad:ba:
                    99:4b:a5:73:4f:f1:ed:40:8e:d0:f8:8e:fb:1d:2b:
                    5d:8c:91:ff:23:ac:f2:eb:b1:ec:fb:90:c7:7c:98:
                    c3:31:d6:dc:79:0e:2c:76:d0:3e:5c:19:d1:34:8a:
                    95:c3:4e:f1:de:a6:3c:5d:28:b5:52:da:2a:13:b5:
                    5a:eb:b9:56:15:67:7a:25:c6:7a:c5:d4:24:de:7f:
                    92:d0:02:81:6d:d5:fc:33:6e:c1:26:92:0f:54:64:
                    f4:3f:61:0a:7d:81:19:f3:5f:92:79:e0:92:ac:09:
                    b4:46:57:79:a6:dd:ff:6b:8c:1e:d2:68:90:6d:6a:
                    46:b1:f3:7c:f4:e1:a2:89:39:15:d6:95:ca:e1:b3:
                    a2:dc:82:77:8e:8a:4e:48:26:60:7c:d2:04:58:04:
                    d7:02:ac:08:67:db:ab:7f:25:ca:78:b9:89:6e:4a:
                    3a:12:73:e1:41:30:92:c8:e8:0c:8e:80:42:cc:0a:
                    0e:93:de:e8:e9:14:ac:8a:9d:78:d0:e0:77:6d:f2:
                    61:da:fe:b3:26:f7:6b:9d:1d:59:14:ef:04:b5:46:
                    77:35:21:3b:5a:86:71:06:96:eb:f4:42:45:ad:30:
                    7e:a8:fe:6f:77:1f:2e:8f:57:e8:2c:6c:0a:9c:e0:
                    e1:8b:75:9d:fa:f4:a9:ba:cb:e7:1b:82:fe:d8:57:
                    2d:9e:51
                Exponent: 65537 (0x10001)
        X509v3 extensions:
            X509v3 Extended Key Usage: 
                TLS Web Client Authentication
    Signature Algorithm: sha1WithRSAEncryption
         b4:fa:5e:60:0a:94:69:fc:05:6e:75:14:4e:71:89:f0:82:31:
         da:ab:88:c5:32:9b:04:bc:68:ed:91:f2:6e:fa:1d:f5:9e:fc:
         86:95:e5:a4:72:95:40:5d:c7:6e:55:db:97:60:43:ee:3a:7f:
         70:23:a3:7d:e3:ab:b0:a8:1d:19:67:e1:0f:52:ac:96:1b:03:
         74:86:fa:b7:02:31:20:f5:17:72:e7:bd:10:6e:fa:e2:9e:b4:
         2b:00:fd:b8:5c:2f:16:cd:06:1b:67:00:00:c3:ce:c6:25:cc:
         e0:e1:65:96:7c:d9:d2:f0:52:77:1a:ff:fb:14:41:b9:a2:3f:
         87:58:56:7e:fa:85:b7:4a:30:48:55:90:41:7b:70:d9:85:a1:
         4b:ce:cd:07:14:6a:01:7f:d4:06:d6:15:02:9d:e6:31:37:e4:
         07:b0:a5:a9:63:3d:c1:4c:29:6e:0c:a4:c0:ed:a0:bd:08:36:
         73:74:83:48:d5:b1:17:13:c3:b2:b8:fa:18:c6:78:7b:dd:73:
         cf:94:45:0c:35:d8:e5:12:7b:a2:79:6b:a4:e0:9a:55:d8:dc:
         37:35:e9:8f:05:cc:d4:41:1e:4b:f5:fa:3c:00:74:dd:7a:81:
         46:92:c4:29:48:da:af:99:84:83:94:67:a1:86:87:28:5e:56:
         0a:54:af:f8:1c:38:b1:cf:76:20:b2:90:e0:d3:bc:8c:e8:e9:
         91:a1:9f:5b:09:67:0c:03:41:be:7a:15:75:e2:79:de:c5:51:
         76:16:b5:ad:f8:c7:d7:46:05:b2:b6:bb:fd:75:36:76:eb:bd:
         e2:80:51:8a:bf:70:2d:fc:da:77:ec:26:80:f3:77:fa:c8:7b:
         81:5e:39:fa:98:c3:be:61:68:ff:ff:49:b0:1b:d0:a2:ad:3c:
         bd:00:cf:81:ba:50:dd:ed:77:82:43:74:eb:fa:d3:f0:5d:45:
         ba:b3:ec:57:1f:e2:e6:c8:f4:ee:17:ad:18:82:fe:ea:f4:d3:
         13:a5:1a:1d:19:f5:9f:2d:ba:99:9e:71:0c:a3:fa:aa:22:82:
         dd:2f:d7:f3:40:ac:ff:8e:f5:64:6a:e8:b3:18:ab:78:ff:1b:
         cd:f9:52:be:d7:0b:ff:b1:ef:ce:39:fe:64:7f:ac:cf:ca:19:
         97:3c:1f:e1:95:78:13:73:7d:ee:a0:ab:2e:9c:8b:4d:56:41:
         14:1c:8b:e8:df:50:3d:62:b6:4c:01:d5:57:92:1b:cf:05:86:
         aa:68:b3:ab:98:9a:d0:e6:b9:61:b2:f8:2b:fd:54:6b:bd:d6:
         5d:23:94:06:4f:6f:04:c9:30:a0:f2:4e:c9:ba:2a:47:64:db:
         4d:5a:92:2e:d2:4e:0d:c1
-----BEGIN CERTIFICATE-----
MIIFUDCCAzigAwIBAgIBAzANBgkqhkiG9w0BAQUFADBjMQswCQYDVQQGEwJJTjEL
MAkGA1UECBMCV0IxEDAOBgNVBAcTB0tvbGthdGExCzAJBgNVBAoTAlBMMRswGQYJ
KoZIhvcNAQkBFgxhZG1pbkBwbC5jb20xCzAJBgNVBAMTAlBMMB4XDTE2MDkwMTEy
MzYwMVoXDTE3MDkwMTEyMzYwMVowWzELMAkGA1UEBhMCSU4xCzAJBgNVBAgTAldC
MQswCQYDVQQKEwJQTDEVMBMGA1UEAxQMdXNlcjFAcGwuY29tMRswGQYJKoZIhvcN
AQkBFgx1c2VyMUBwbC5jb20wggIiMA0GCSqGSIb3DQEBAQUAA4ICDwAwggIKAoIC
AQDMb3LU031J6kzEHWGEEFpaOiNS4DUxbw3tY293Lo5jRnrMA0663nH034Ase88y
rRVksgEulilQsb4cyhY+m3uuAhqgKWm4WItEiAeQLHZaNHlQS0jxkJVfeINb2bwe
NkROKT7tgtLBB3f/S4dX3Kb1NQ3x4v7ANHWZ+xdekLpFpQR292rBEiR8uLkp3cFQ
ikcAOR6KrCB5H8wycA9c+OBi9Yq7ltlTOWt0uzOqenKb3YzFlsMiJ3oHzE5lFnnP
QhoyBf+D3djH6oHbraOoSsjhVVGM87Q8qkYA7yJXNaVMbWSed3ckKb4OoOfkusnu
fGDTn45Pb+HCtlM2/t+tuplLpXNP8e1AjtD4jvsdK12Mkf8jrPLrsez7kMd8mMMx
1tx5Dix20D5cGdE0ipXDTvHepjxdKLVS2ioTtVrruVYVZ3olxnrF1CTef5LQAoFt
1fwzbsEmkg9UZPQ/YQp9gRnzX5J54JKsCbRGV3mm3f9rjB7SaJBtakax83z04aKJ
ORXWlcrhs6LcgneOik5IJmB80gRYBNcCrAhn26t/Jcp4uYluSjoSc+FBMJLI6AyO
gELMCg6T3ujpFKyKnXjQ4Hdt8mHa/rMm92udHVkU7wS1Rnc1ITtahnEGluv0QkWt
MH6o/m93Hy6PV+gsbAqc4OGLdZ369Km6y+cbgv7YVy2eUQIDAQABoxcwFTATBgNV
HSUEDDAKBggrBgEFBQcDAjANBgkqhkiG9w0BAQUFAAOCAgEAtPpeYAqUafwFbnUU
TnGJ8IIx2quIxTKbBLxo7ZHybvod9Z78hpXlpHKVQF3HblXbl2BD7jp/cCOjfeOr
sKgdGWfhD1KslhsDdIb6twIxIPUXcue9EG764p60KwD9uFwvFs0GG2cAAMPOxiXM
4OFllnzZ0vBSdxr/+xRBuaI/h1hWfvqFt0owSFWQQXtw2YWhS87NBxRqAX/UBtYV
Ap3mMTfkB7ClqWM9wUwpbgykwO2gvQg2c3SDSNWxFxPDsrj6GMZ4e91zz5RFDDXY
5RJ7onlrpOCaVdjcNzXpjwXM1EEeS/X6PAB03XqBRpLEKUjar5mEg5RnoYaHKF5W
ClSv+Bw4sc92ILKQ4NO8jOjpkaGfWwlnDANBvnoVdeJ53sVRdha1rfjH10YFsra7
/XU2duu94oBRir9wLfzad+wmgPN3+sh7gV45+pjDvmFo//9JsBvQoq08vQDPgbpQ
3e13gkN06/rT8F1FurPsVx/i5sj07hetGIL+6vTTE6UaHRn1ny26mZ5xDKP6qiKC
3S/X80Cs/471ZGrosxireP8bzflSvtcL/7Hvzjn+ZH+sz8oZlzwf4ZV4E3N97qCr
LpyLTVZBFByL6N9QPWK2TAHVV5IbzwWGqmizq5ia0Oa5YbL4K/1Ua73WXSOUBk9v
BMkwoPJOyboqR2TbTVqSLtJODcE=
-----END CERTIFICATE-----
