Certificate:
    Data:
        Version: 3 (0x2)
        Serial Number: 3 (0x3)
    Signature Algorithm: sha1WithRSAEncryption
        Issuer: C=IN, ST=WB, L=Kolkata, O=Poziom Labs/emailAddress=admin@plcom, CN=Poziom Labs
        Validity
            Not Before: Aug 30 14:10:07 2016 GMT
            Not After : Aug 30 14:10:07 2017 GMT
        Subject: C=IN, ST=WB, O=Poziom Labs, CN=user1-pl.com/emailAddress=user1@pl.com
        Subject Public Key Info:
            Public Key Algorithm: rsaEncryption
                Public-Key: (4096 bit)
                Modulus:
                    00:b3:f7:83:db:39:1f:2a:e1:55:f1:a4:af:c1:95:
                    5d:9b:74:e9:0e:e5:de:5f:65:a6:75:6f:f3:bb:6a:
                    10:c7:91:b3:e6:e6:44:76:27:9f:ab:db:96:0b:36:
                    84:97:21:a1:f3:d3:14:49:28:ce:9c:8a:9b:be:bf:
                    2f:d3:10:30:1e:36:2e:9c:b5:db:b2:8f:e8:c5:e2:
                    5f:8a:ce:03:45:b8:4a:a7:95:76:19:2a:50:d1:a8:
                    64:54:19:94:53:15:7f:1f:8b:0c:c5:12:89:c7:62:
                    9b:4b:37:8c:c9:24:43:69:01:8e:38:9b:24:59:ec:
                    a7:02:c9:04:3f:de:df:78:fa:84:6b:68:59:96:5e:
                    cf:8e:8a:1f:2d:1b:fb:08:21:e6:64:f3:66:ba:3d:
                    fa:73:d3:16:d7:d4:f3:83:14:98:39:08:f5:0f:ca:
                    23:ff:74:92:37:13:c1:c9:b1:74:25:d3:df:d7:d2:
                    33:0a:e4:70:86:dd:ab:38:2d:a4:4a:89:46:40:02:
                    df:fe:bd:f5:d0:ad:e1:b7:8f:95:0b:af:be:6c:3e:
                    87:63:d7:c3:e5:b5:70:2d:59:57:4c:12:67:d2:b9:
                    ba:20:5d:1b:3d:dd:98:c8:60:4e:19:e8:0f:a3:f9:
                    72:9e:46:c9:88:49:98:e5:f7:58:de:aa:25:16:25:
                    06:23:07:a8:3a:4b:d1:d1:03:13:1c:aa:59:c7:cb:
                    fb:6f:76:58:80:fc:9e:38:4c:8b:dd:3b:2f:fa:d2:
                    37:ca:34:d9:cb:88:2e:c1:1e:06:cb:3f:9f:dd:73:
                    cd:73:4c:ba:4f:71:00:aa:5a:58:ac:2b:88:fd:74:
                    83:b3:07:37:02:19:c7:e4:ff:23:2e:37:c5:e6:e8:
                    f0:c3:8c:ce:64:27:23:76:b7:f1:55:f2:84:fb:61:
                    cc:68:e1:3a:01:13:87:af:25:a4:ea:d7:ea:2c:f2:
                    1d:ed:e7:1f:3a:38:5c:be:7c:8b:5e:23:33:08:9d:
                    26:be:8c:e8:dd:03:a1:09:95:e7:a2:eb:80:51:26:
                    41:7f:75:51:20:c1:b1:d0:3f:eb:b4:d5:6e:6b:18:
                    03:aa:46:28:21:db:d5:a4:20:50:c4:e9:1f:c9:7a:
                    ea:67:f9:d6:f1:7f:d1:1a:1e:50:f4:09:c8:16:40:
                    4b:e3:e7:17:e9:0a:64:10:c0:71:9d:e4:29:3d:4c:
                    35:06:7b:67:7a:d0:a1:99:f7:75:0e:ae:6f:ca:c7:
                    b0:7d:32:a9:07:38:ac:50:fa:2f:36:d9:00:34:ca:
                    2f:d2:28:74:30:c4:23:78:5f:e7:9a:da:ea:e8:84:
                    47:3d:c8:ac:ee:9d:bf:8c:83:72:6c:6a:98:e3:16:
                    a9:7c:43
                Exponent: 65537 (0x10001)
        X509v3 extensions:
            X509v3 Extended Key Usage: 
                TLS Web Client Authentication
    Signature Algorithm: sha1WithRSAEncryption
         0c:be:64:0a:08:62:ce:4a:f0:ec:06:d7:06:43:ea:0e:fa:06:
         cf:43:dd:7e:56:70:17:65:7e:2c:a0:fb:2f:77:64:ad:d1:13:
         49:8f:75:9b:e3:5d:f8:3a:13:f1:70:a6:7f:19:be:12:6b:86:
         ed:69:04:3c:6e:bd:dd:9d:68:ad:04:0e:bc:97:25:df:bd:49:
         1e:d5:ed:20:18:f8:a1:0a:32:db:0b:6e:53:60:f0:44:a1:fd:
         f6:b9:95:5a:4a:98:00:b1:b9:97:81:6d:15:53:49:d7:63:4b:
         35:88:b3:94:8a:e6:4a:4f:a4:15:3d:99:b2:e6:3a:f6:b5:ca:
         39:72:2b:b9:d1:39:f8:4f:50:cf:52:de:89:a5:42:5a:45:c6:
         b8:d0:5a:2f:76:85:99:2c:40:94:b6:24:0f:69:03:fb:ba:72:
         79:5d:98:d7:54:79:8d:5a:a5:dc:39:11:18:d5:e2:ad:44:6c:
         52:d4:e1:f8:fe:93:34:f0:cf:ff:20:2f:f9:be:36:e5:65:2e:
         be:22:c6:b8:16:d1:0f:f6:8d:d9:a7:a8:b3:26:ed:7c:57:34:
         33:fb:f9:a9:29:34:58:92:80:96:fd:a2:6a:5d:e0:54:3c:5a:
         af:75:4f:f4:8f:4f:34:08:a4:dd:af:b7:12:8b:e5:da:41:2e:
         17:fb:c1:6e:f3:49:06:3c:b6:c4:95:5f:90:77:6e:25:68:e3:
         af:3a:3e:a7:e4:4c:21:5c:90:30:6a:44:42:6a:0c:67:90:4d:
         3d:15:ab:2b:8f:ea:c2:f1:2c:43:d7:ff:2d:86:4c:7c:e1:96:
         f0:14:58:05:7c:77:41:be:06:47:42:9d:72:47:32:be:cf:3f:
         39:9f:ba:a4:e0:da:86:c9:ab:2e:1c:50:4d:58:cb:fe:12:47:
         15:42:76:20:c3:e7:f3:7b:75:6e:70:0e:0b:62:55:d3:e9:fc:
         2a:dc:a6:30:f9:bc:2e:51:db:8e:7b:7a:fd:cb:07:92:0f:b0:
         f0:8b:3f:a9:e8:90:ef:5e:02:6e:86:61:e9:3b:8a:d7:6c:98:
         87:f1:06:51:35:b8:08:6c:e6:cb:27:ac:6b:87:59:5e:cd:72:
         89:73:23:69:f2:5b:e8:0a:7a:e0:5c:cc:6f:93:8d:3b:20:5e:
         0f:d8:dd:d7:90:5f:40:a9:da:e4:39:62:9e:ee:7a:cc:28:e6:
         de:1b:d5:0e:f9:8f:fb:04:6d:d6:2d:cd:e0:96:c2:f4:30:e3:
         89:43:c3:d7:39:9d:0f:10:f8:f6:be:ec:fc:ca:70:6f:c7:85:
         4a:d7:a4:46:af:c3:88:d1:9c:92:25:66:8a:8c:65:eb:ce:5a:
         26:16:8a:3f:08:52:1c:15
-----BEGIN CERTIFICATE-----
MIIFajCCA1KgAwIBAgIBAzANBgkqhkiG9w0BAQUFADB0MQswCQYDVQQGEwJJTjEL
MAkGA1UECBMCV0IxEDAOBgNVBAcTB0tvbGthdGExFDASBgNVBAoTC1BvemlvbSBM
YWJzMRowGAYJKoZIhvcNAQkBFgthZG1pbkBwbGNvbTEUMBIGA1UEAxMLUG96aW9t
IExhYnMwHhcNMTYwODMwMTQxMDA3WhcNMTcwODMwMTQxMDA3WjBkMQswCQYDVQQG
EwJJTjELMAkGA1UECBMCV0IxFDASBgNVBAoTC1BvemlvbSBMYWJzMRUwEwYDVQQD
Ewx1c2VyMS1wbC5jb20xGzAZBgkqhkiG9w0BCQEWDHVzZXIxQHBsLmNvbTCCAiIw
DQYJKoZIhvcNAQEBBQADggIPADCCAgoCggIBALP3g9s5HyrhVfGkr8GVXZt06Q7l
3l9lpnVv87tqEMeRs+bmRHYnn6vblgs2hJchofPTFEkozpyKm76/L9MQMB42Lpy1
27KP6MXiX4rOA0W4SqeVdhkqUNGoZFQZlFMVfx+LDMUSicdim0s3jMkkQ2kBjjib
JFnspwLJBD/e33j6hGtoWZZez46KHy0b+wgh5mTzZro9+nPTFtfU84MUmDkI9Q/K
I/90kjcTwcmxdCXT39fSMwrkcIbdqzgtpEqJRkAC3/699dCt4bePlQuvvmw+h2PX
w+W1cC1ZV0wSZ9K5uiBdGz3dmMhgThnoD6P5cp5GyYhJmOX3WN6qJRYlBiMHqDpL
0dEDExyqWcfL+292WID8njhMi907L/rSN8o02cuILsEeBss/n91zzXNMuk9xAKpa
WKwriP10g7MHNwIZx+T/Iy43xebo8MOMzmQnI3a38VXyhPthzGjhOgETh68lpOrX
6izyHe3nHzo4XL58i14jMwidJr6M6N0DoQmV56LrgFEmQX91USDBsdA/67TVbmsY
A6pGKCHb1aQgUMTpH8l66mf51vF/0RoeUPQJyBZAS+PnF+kKZBDAcZ3kKT1MNQZ7
Z3rQoZn3dQ6ub8rHsH0yqQc4rFD6LzbZADTKL9IodDDEI3hf55ra6uiERz3IrO6d
v4yDcmxqmOMWqXxDAgMBAAGjFzAVMBMGA1UdJQQMMAoGCCsGAQUFBwMCMA0GCSqG
SIb3DQEBBQUAA4ICAQAMvmQKCGLOSvDsBtcGQ+oO+gbPQ91+VnAXZX4soPsvd2St
0RNJj3Wb4134OhPxcKZ/Gb4Sa4btaQQ8br3dnWitBA68lyXfvUke1e0gGPihCjLb
C25TYPBEof32uZVaSpgAsbmXgW0VU0nXY0s1iLOUiuZKT6QVPZmy5jr2tco5ciu5
0Tn4T1DPUt6JpUJaRca40FovdoWZLECUtiQPaQP7unJ5XZjXVHmNWqXcOREY1eKt
RGxS1OH4/pM08M//IC/5vjblZS6+Isa4FtEP9o3Zp6izJu18VzQz+/mpKTRYkoCW
/aJqXeBUPFqvdU/0j080CKTdr7cSi+XaQS4X+8Fu80kGPLbElV+Qd24laOOvOj6n
5EwhXJAwakRCagxnkE09Fasrj+rC8SxD1/8thkx84ZbwFFgFfHdBvgZHQp1yRzK+
zz85n7qk4NqGyasuHFBNWMv+EkcVQnYgw+fze3VucA4LYlXT6fwq3KYw+bwuUduO
e3r9yweSD7Dwiz+p6JDvXgJuhmHpO4rXbJiH8QZRNbgIbObLJ6xrh1lezXKJcyNp
8lvoCnrgXMxvk407IF4P2N3XkF9AqdrkOWKe7nrMKObeG9UO+Y/7BG3WLc3glsL0
MOOJQ8PXOZ0PEPj2vuz8ynBvx4VK16RGr8OI0ZySJWaKjGXrzlomFoo/CFIcFQ==
-----END CERTIFICATE-----
