Certificate:
    Data:
        Version: 3 (0x2)
        Serial Number: 4 (0x4)
    Signature Algorithm: sha1WithRSAEncryption
        Issuer: C=IN, ST=WB, L=Kolkata, O=PL/emailAddress=admin@pl.com, CN=PL
        Validity
            Not Before: Sep  1 13:22:18 2016 GMT
            Not After : Sep  1 13:22:18 2017 GMT
        Subject: C=IN, ST=WB, O=PL, CN=user2@pl.com/emailAddress=user2@pl.com
        Subject Public Key Info:
            Public Key Algorithm: rsaEncryption
                Public-Key: (4096 bit)
                Modulus:
                    00:e1:2b:f2:9e:c9:94:59:7f:03:8f:b2:b2:50:b3:
                    07:a9:1b:39:82:e4:6e:b1:a8:86:a2:41:d8:31:95:
                    1b:07:ad:92:af:ab:55:05:ed:a3:0d:a7:bb:b9:99:
                    f0:68:e4:83:d7:ae:78:5a:57:dd:55:3c:23:53:f2:
                    37:b9:87:5f:d8:7f:85:8a:16:5b:fe:1f:77:3f:17:
                    c8:79:b6:d8:32:f0:90:ee:c5:93:f4:63:ff:f5:7d:
                    9e:f5:64:6d:4f:de:6c:c4:8f:ed:6e:3a:79:27:dd:
                    65:de:7a:81:1f:1c:32:2d:49:45:f8:4c:cd:da:32:
                    1b:02:67:7b:cf:c6:ca:63:45:78:80:a4:e3:bf:46:
                    c3:0d:cb:d4:31:95:3d:77:66:99:0d:f6:a1:f7:1c:
                    9b:24:82:15:bb:ae:98:1f:55:1f:41:fc:6c:d9:9b:
                    6d:13:bb:ce:bb:a1:a0:de:bf:9c:cf:32:ad:db:99:
                    da:be:50:eb:4d:16:3c:e9:43:7d:1f:12:e1:cc:bd:
                    76:20:67:69:5d:93:73:7a:00:39:37:e6:e0:1b:e1:
                    f4:16:dc:a8:99:69:86:b0:4f:8e:c8:50:0a:aa:9f:
                    01:de:20:27:c8:55:82:f1:63:f6:72:c1:f8:ad:65:
                    4a:24:7d:02:c7:62:6f:20:7e:8b:78:5e:43:b7:cd:
                    b9:b2:8e:8a:ac:d1:5d:f7:64:9a:1a:45:30:08:56:
                    7d:2f:50:01:fa:33:aa:bb:a0:2e:3c:74:c1:41:50:
                    73:31:89:65:04:11:c1:b6:fc:2a:29:9b:20:90:9b:
                    ab:37:42:86:62:de:d4:cd:5b:71:a7:8e:6b:6d:b2:
                    fd:c4:2c:f2:58:f7:7f:45:3e:27:bb:d9:68:48:ee:
                    9a:b8:f7:e7:0d:33:01:12:57:85:5b:29:d8:a1:75:
                    45:6e:64:0f:d3:b9:9a:15:42:be:1b:3a:2c:ad:85:
                    12:84:c3:c0:8e:cf:23:08:2d:d6:7f:8a:bb:c0:87:
                    c4:b2:a5:3b:f8:56:ed:b2:03:95:55:0c:f8:37:59:
                    e6:6b:bd:05:d9:c1:65:51:78:fc:57:d1:aa:72:24:
                    01:3d:57:c6:50:93:4c:32:34:73:8e:06:1f:3f:46:
                    d8:ee:28:2b:7a:e9:f9:2c:f4:c4:4e:99:f9:80:82:
                    77:72:5d:71:bb:52:19:7e:51:b0:30:07:c5:7b:79:
                    2b:7d:5b:1e:db:7b:a4:61:a7:84:6a:d4:bf:64:3b:
                    16:04:49:26:d0:5e:20:c8:ea:df:52:f7:79:49:25:
                    a9:3b:8b:4b:8b:a5:de:f9:03:51:94:37:19:64:a2:
                    6d:e1:4a:dc:3b:63:46:bf:27:e2:98:25:50:be:82:
                    2f:2a:c7
                Exponent: 65537 (0x10001)
        X509v3 extensions:
            X509v3 Extended Key Usage: 
                TLS Web Client Authentication
    Signature Algorithm: sha1WithRSAEncryption
         98:ab:25:20:70:4d:98:f6:ae:f7:4f:a6:b9:b6:01:7f:63:bb:
         8a:14:e0:e4:53:0b:b1:a9:4c:2f:d1:39:b6:eb:87:01:3d:f4:
         1e:7e:8f:c3:29:0f:6a:a0:55:72:10:6c:55:51:cc:0a:cd:66:
         fc:63:00:43:79:66:59:69:19:5a:45:a7:bc:0e:cb:fa:7e:92:
         95:b2:64:b9:0e:c1:fa:45:7a:ef:39:4c:8f:e0:e2:82:fb:ba:
         f3:0f:c9:5b:da:ec:25:78:94:fe:61:dd:11:0a:11:dd:64:d8:
         72:96:e2:86:ba:e0:56:6e:a2:88:1a:5f:01:b3:ca:c0:f8:32:
         87:c0:f3:43:34:70:0a:13:e9:be:5e:3b:bf:e9:6b:cb:22:e7:
         db:ed:76:40:86:6e:b8:38:fd:ba:93:88:69:e3:3b:16:60:0e:
         e5:b5:18:27:bf:40:dd:05:cc:19:a1:e5:14:36:68:68:71:c0:
         78:ca:d2:f0:ee:6c:f1:b1:01:92:51:d2:00:5b:41:9e:fa:36:
         a9:ec:fa:de:aa:05:9e:f5:78:60:23:bf:37:43:2f:cd:71:dd:
         ce:3a:51:1a:6d:b3:44:73:ee:8c:e5:41:58:a1:92:4b:12:aa:
         ce:a5:a5:b9:58:6f:d0:d5:14:f5:91:87:ba:bf:37:9c:cc:cb:
         22:f5:6e:54:31:61:b3:7b:5c:12:94:47:fc:d5:61:5e:80:66:
         08:f8:74:98:3c:a0:12:46:67:39:bf:9f:7c:d0:90:17:28:4f:
         75:46:c2:fa:71:bd:cc:f2:c9:ad:86:81:b2:0f:f3:43:20:a3:
         07:e7:c2:f5:6b:8c:ef:93:2d:f3:51:9b:3c:f3:35:8d:6a:ec:
         96:3e:89:fa:47:2d:9a:94:10:e0:09:72:3c:9d:f5:08:43:2c:
         bd:f9:40:0e:06:a3:09:31:be:7b:91:1e:ec:13:3d:65:44:a2:
         b5:40:37:68:c0:be:16:31:89:0a:f3:0f:82:e5:c7:aa:db:a3:
         ab:16:c9:b9:7a:50:68:91:93:8d:b1:35:78:c9:1d:6b:96:f9:
         ff:6a:79:40:e3:7a:7e:2e:9a:01:69:6e:04:e5:de:cc:61:3f:
         19:f8:8b:0a:96:7e:52:87:55:0d:04:b7:56:12:ee:ce:58:48:
         b0:c0:cd:ef:77:ac:fd:7c:c5:a6:64:e9:0d:29:b5:8c:ca:2a:
         b6:fe:f3:67:bf:4d:9a:d3:af:97:48:6e:80:af:24:29:f4:fe:
         4e:17:e5:32:cb:8f:42:1c:01:c8:0b:34:2f:53:a0:0a:10:ca:
         29:26:15:81:7e:53:4d:2c:06:10:73:75:19:ed:2a:25:2f:3b:
         db:fd:f7:7c:e2:18:91:5f
-----BEGIN CERTIFICATE-----
MIIFUDCCAzigAwIBAgIBBDANBgkqhkiG9w0BAQUFADBjMQswCQYDVQQGEwJJTjEL
MAkGA1UECBMCV0IxEDAOBgNVBAcTB0tvbGthdGExCzAJBgNVBAoTAlBMMRswGQYJ
KoZIhvcNAQkBFgxhZG1pbkBwbC5jb20xCzAJBgNVBAMTAlBMMB4XDTE2MDkwMTEz
MjIxOFoXDTE3MDkwMTEzMjIxOFowWzELMAkGA1UEBhMCSU4xCzAJBgNVBAgTAldC
MQswCQYDVQQKEwJQTDEVMBMGA1UEAxQMdXNlcjJAcGwuY29tMRswGQYJKoZIhvcN
AQkBFgx1c2VyMkBwbC5jb20wggIiMA0GCSqGSIb3DQEBAQUAA4ICDwAwggIKAoIC
AQDhK/KeyZRZfwOPsrJQswepGzmC5G6xqIaiQdgxlRsHrZKvq1UF7aMNp7u5mfBo
5IPXrnhaV91VPCNT8je5h1/Yf4WKFlv+H3c/F8h5ttgy8JDuxZP0Y//1fZ71ZG1P
3mzEj+1uOnkn3WXeeoEfHDItSUX4TM3aMhsCZ3vPxspjRXiApOO/RsMNy9QxlT13
ZpkN9qH3HJskghW7rpgfVR9B/GzZm20Tu867oaDev5zPMq3bmdq+UOtNFjzpQ30f
EuHMvXYgZ2ldk3N6ADk35uAb4fQW3KiZaYawT47IUAqqnwHeICfIVYLxY/Zywfit
ZUokfQLHYm8gfot4XkO3zbmyjoqs0V33ZJoaRTAIVn0vUAH6M6q7oC48dMFBUHMx
iWUEEcG2/CopmyCQm6s3QoZi3tTNW3Gnjmttsv3ELPJY939FPie72WhI7pq49+cN
MwESV4VbKdihdUVuZA/TuZoVQr4bOiythRKEw8COzyMILdZ/irvAh8SypTv4Vu2y
A5VVDPg3WeZrvQXZwWVRePxX0apyJAE9V8ZQk0wyNHOOBh8/RtjuKCt66fks9MRO
mfmAgndyXXG7Uhl+UbAwB8V7eSt9Wx7be6Rhp4Rq1L9kOxYESSbQXiDI6t9S93lJ
Jak7i0uLpd75A1GUNxlkom3hStw7Y0a/J+KYJVC+gi8qxwIDAQABoxcwFTATBgNV
HSUEDDAKBggrBgEFBQcDAjANBgkqhkiG9w0BAQUFAAOCAgEAmKslIHBNmPau90+m
ubYBf2O7ihTg5FMLsalML9E5tuuHAT30Hn6PwykPaqBVchBsVVHMCs1m/GMAQ3lm
WWkZWkWnvA7L+n6SlbJkuQ7B+kV67zlMj+Digvu68w/JW9rsJXiU/mHdEQoR3WTY
cpbihrrgVm6iiBpfAbPKwPgyh8DzQzRwChPpvl47v+lryyLn2+12QIZuuDj9upOI
aeM7FmAO5bUYJ79A3QXMGaHlFDZoaHHAeMrS8O5s8bEBklHSAFtBnvo2qez63qoF
nvV4YCO/N0MvzXHdzjpRGm2zRHPujOVBWKGSSxKqzqWluVhv0NUU9ZGHur83nMzL
IvVuVDFhs3tcEpRH/NVhXoBmCPh0mDygEkZnOb+ffNCQFyhPdUbC+nG9zPLJrYaB
sg/zQyCjB+fC9WuM75Mt81GbPPM1jWrslj6J+kctmpQQ4AlyPJ31CEMsvflADgaj
CTG+e5Ee7BM9ZUSitUA3aMC+FjGJCvMPguXHqtujqxbJuXpQaJGTjbE1eMkda5b5
/2p5QON6fi6aAWluBOXezGE/GfiLCpZ+UodVDQS3VhLuzlhIsMDN73es/XzFpmTp
DSm1jMoqtv7zZ79NmtOvl0hugK8kKfT+ThflMsuPQhwByAs0L1OgChDKKSYVgX5T
TSwGEHN1Ge0qJS872/33fOIYkV8=
-----END CERTIFICATE-----
