Certificate:
    Data:
        Version: 3 (0x2)
        Serial Number: 4 (0x4)
    Signature Algorithm: sha1WithRSAEncryption
        Issuer: C=IN, ST=WB, L=Kolkata, O=Poziom Labs/emailAddress=admin@plcom, CN=Poziom Labs
        Validity
            Not Before: Aug 31 07:48:54 2016 GMT
            Not After : Aug 31 07:48:54 2017 GMT
        Subject: C=IN, ST=WB, O=Poziom Labs, CN=user2-pl.com/emailAddress=user2@pl.com
        Subject Public Key Info:
            Public Key Algorithm: rsaEncryption
                Public-Key: (4096 bit)
                Modulus:
                    00:9d:ed:72:59:5a:2c:fd:e6:3b:d1:a9:39:36:c3:
                    b6:c9:6e:13:60:72:96:db:71:78:87:31:5c:65:81:
                    1a:ea:d2:e6:df:7c:32:04:29:86:f8:c9:be:97:3b:
                    53:29:88:86:42:72:20:63:af:3d:23:77:40:fb:13:
                    d6:84:35:23:9f:5f:03:a4:94:86:b6:44:0d:5e:ef:
                    73:96:c6:28:1c:5b:cb:f7:ca:27:d1:23:7b:45:df:
                    95:28:51:1d:93:fc:54:45:fa:17:77:87:d2:03:ed:
                    e8:48:ca:87:ee:14:25:fe:f6:33:cd:8a:d7:7e:04:
                    e4:60:40:55:d0:87:69:9f:b1:d3:68:0c:64:ae:34:
                    fa:1f:89:70:dd:b4:97:65:8a:80:56:57:3e:69:81:
                    82:5e:b0:cc:35:1f:7e:0e:19:a0:fb:b5:ea:e0:ba:
                    d7:4d:e5:f6:d9:17:2b:c4:3e:8f:57:57:64:b8:7b:
                    24:f1:67:f6:30:b2:8c:8b:e0:3f:d8:d1:95:8d:27:
                    8d:95:47:2a:f7:07:3d:bd:54:b1:f6:0e:ca:bf:24:
                    3d:64:2e:80:c7:6f:20:71:48:ad:8e:fd:2d:39:54:
                    bc:83:b4:c5:22:b3:d9:c3:08:9e:c8:7f:db:0b:66:
                    7b:50:bf:4c:f9:10:74:35:74:49:2e:c4:9a:73:1d:
                    e9:a5:ee:a8:f7:50:4e:8c:25:fb:9a:8f:41:ca:38:
                    7b:03:9d:73:91:02:5f:68:54:17:09:db:74:18:a7:
                    8e:db:b4:c1:e4:cc:99:fb:4e:a5:5b:97:d7:d1:8b:
                    02:4a:dd:08:f1:d0:40:94:1f:0d:9c:33:87:35:1c:
                    d3:cc:16:d2:99:20:11:78:a7:75:bf:1f:24:1e:86:
                    8d:ca:f5:21:ff:67:bf:bc:70:55:18:6f:d7:af:fd:
                    b5:a3:39:88:a0:0d:9b:b1:32:d9:e2:19:68:23:6e:
                    fe:17:23:bb:8d:b5:90:8c:b3:36:e6:09:ff:43:49:
                    2a:62:07:a5:23:35:a9:b7:28:50:ea:c6:16:34:12:
                    96:51:fc:ca:1a:de:11:0c:b3:fc:48:3b:ba:e2:f9:
                    30:3e:de:39:97:07:bf:7b:f2:66:34:c2:c7:5f:f8:
                    3b:27:63:1d:65:94:45:cd:c5:73:c1:b9:4f:38:d1:
                    c9:c0:ca:2e:41:b7:d7:4e:e8:2a:87:2e:30:6f:79:
                    de:07:82:85:26:76:b0:17:73:6b:2f:df:00:44:34:
                    ae:4f:5b:d8:92:27:04:51:73:ae:0e:17:3c:f4:db:
                    5b:d0:7d:c9:04:4a:7f:f8:2f:3f:3f:2b:56:f5:75:
                    16:d0:8b:e8:61:05:b4:63:9c:34:38:7c:b0:f0:d2:
                    2e:cb:7d
                Exponent: 65537 (0x10001)
        X509v3 extensions:
            X509v3 Extended Key Usage: 
                TLS Web Client Authentication
    Signature Algorithm: sha1WithRSAEncryption
         b5:58:93:48:cb:f0:88:7d:70:af:0d:62:be:0f:97:2c:ca:3c:
         13:52:02:96:84:a2:a1:e1:b4:3c:58:92:89:53:bc:61:d2:10:
         67:30:c6:e9:b6:57:0f:64:aa:af:55:ee:55:8f:bf:05:7c:80:
         2c:74:3f:5b:f0:0a:5f:89:6c:58:a4:6a:ad:9a:39:48:cd:3d:
         26:22:0c:39:bf:9e:4f:a3:a7:07:1f:5e:8a:94:87:b9:6e:21:
         4a:e9:81:6d:a1:42:4a:eb:de:75:6e:de:cb:cf:5d:9e:47:e9:
         ae:f8:09:49:d8:d3:33:03:ba:f6:5c:75:94:c3:da:0c:b8:66:
         7a:18:1e:a6:51:35:1f:8c:a2:e2:1d:cd:39:e2:d7:da:fe:7c:
         47:1e:d9:cd:af:e8:ef:0c:09:7c:21:16:a5:ca:43:63:9b:99:
         71:0a:27:00:24:72:a5:b3:09:87:cf:cb:90:22:29:2f:70:ab:
         45:d6:ba:83:8a:19:c9:c4:15:b2:2e:35:69:78:a9:a2:63:2d:
         b4:32:94:c3:4b:aa:79:9a:68:74:d1:cb:3b:8c:c7:fe:08:56:
         86:58:80:af:48:42:8c:13:1c:ea:5f:ef:a9:57:46:44:20:d8:
         c7:2c:73:e1:c9:a1:e4:ba:a1:81:3f:ea:b9:fc:c5:db:3f:cc:
         66:a4:32:93:7f:19:60:dc:0e:1a:3f:1b:9b:95:a8:bd:68:05:
         74:31:8c:d3:58:84:db:48:0e:be:ad:fa:f9:f0:b0:9e:4d:91:
         be:65:5d:f1:7a:49:23:76:26:b5:42:1d:65:93:c7:1d:ae:b2:
         30:a5:a4:b8:43:26:6d:f8:b0:62:fc:a4:05:a0:ed:81:9b:e1:
         c7:1b:bb:22:f1:63:fb:17:35:e9:7a:1e:88:b8:02:15:e5:b6:
         93:d1:de:1a:9a:c2:cf:f1:21:8f:b8:c4:d8:7f:32:63:ca:05:
         67:2a:2c:25:78:3a:5b:a7:0c:9d:86:37:8f:0c:ba:60:e3:e2:
         ab:30:94:18:39:f9:4b:c2:eb:c0:17:ac:c8:a1:cd:d7:03:e8:
         73:a9:c7:9a:37:61:2e:e5:5b:20:32:1e:66:c6:79:1b:c7:9c:
         b3:f4:38:e6:de:3b:4c:a1:6a:28:85:5b:62:98:37:87:64:78:
         e7:ba:fd:4f:3e:f9:8c:63:34:06:6c:45:24:28:70:4d:bf:06:
         a9:97:4b:ce:b8:97:87:38:c1:cd:aa:48:74:b2:82:4f:98:68:
         b5:ba:6b:6d:3d:06:70:81:c5:23:44:b0:22:06:57:86:70:f1:
         06:57:e1:ee:77:38:fd:f6:cb:69:cf:c0:bf:30:36:b6:8c:77:
         4e:82:8c:00:2c:35:30:4c
-----BEGIN CERTIFICATE-----
MIIFajCCA1KgAwIBAgIBBDANBgkqhkiG9w0BAQUFADB0MQswCQYDVQQGEwJJTjEL
MAkGA1UECBMCV0IxEDAOBgNVBAcTB0tvbGthdGExFDASBgNVBAoTC1BvemlvbSBM
YWJzMRowGAYJKoZIhvcNAQkBFgthZG1pbkBwbGNvbTEUMBIGA1UEAxMLUG96aW9t
IExhYnMwHhcNMTYwODMxMDc0ODU0WhcNMTcwODMxMDc0ODU0WjBkMQswCQYDVQQG
EwJJTjELMAkGA1UECBMCV0IxFDASBgNVBAoTC1BvemlvbSBMYWJzMRUwEwYDVQQD
Ewx1c2VyMi1wbC5jb20xGzAZBgkqhkiG9w0BCQEWDHVzZXIyQHBsLmNvbTCCAiIw
DQYJKoZIhvcNAQEBBQADggIPADCCAgoCggIBAJ3tcllaLP3mO9GpOTbDtsluE2By
lttxeIcxXGWBGurS5t98MgQphvjJvpc7UymIhkJyIGOvPSN3QPsT1oQ1I59fA6SU
hrZEDV7vc5bGKBxby/fKJ9Eje0XflShRHZP8VEX6F3eH0gPt6EjKh+4UJf72M82K
134E5GBAVdCHaZ+x02gMZK40+h+JcN20l2WKgFZXPmmBgl6wzDUffg4ZoPu16uC6
103l9tkXK8Q+j1dXZLh7JPFn9jCyjIvgP9jRlY0njZVHKvcHPb1UsfYOyr8kPWQu
gMdvIHFIrY79LTlUvIO0xSKz2cMInsh/2wtme1C/TPkQdDV0SS7EmnMd6aXuqPdQ
Towl+5qPQco4ewOdc5ECX2hUFwnbdBinjtu0weTMmftOpVuX19GLAkrdCPHQQJQf
DZwzhzUc08wW0pkgEXindb8fJB6Gjcr1If9nv7xwVRhv16/9taM5iKANm7Ey2eIZ
aCNu/hcju421kIyzNuYJ/0NJKmIHpSM1qbcoUOrGFjQSllH8yhreEQyz/Eg7uuL5
MD7eOZcHv3vyZjTCx1/4OydjHWWURc3Fc8G5TzjRycDKLkG3107oKocuMG953geC
hSZ2sBdzay/fAEQ0rk9b2JInBFFzrg4XPPTbW9B9yQRKf/gvPz8rVvV1FtCL6GEF
tGOcNDh8sPDSLst9AgMBAAGjFzAVMBMGA1UdJQQMMAoGCCsGAQUFBwMCMA0GCSqG
SIb3DQEBBQUAA4ICAQC1WJNIy/CIfXCvDWK+D5csyjwTUgKWhKKh4bQ8WJKJU7xh
0hBnMMbptlcPZKqvVe5Vj78FfIAsdD9b8ApfiWxYpGqtmjlIzT0mIgw5v55Po6cH
H16KlIe5biFK6YFtoUJK6951bt7Lz12eR+mu+AlJ2NMzA7r2XHWUw9oMuGZ6GB6m
UTUfjKLiHc054tfa/nxHHtnNr+jvDAl8IRalykNjm5lxCicAJHKlswmHz8uQIikv
cKtF1rqDihnJxBWyLjVpeKmiYy20MpTDS6p5mmh00cs7jMf+CFaGWICvSEKMExzq
X++pV0ZEINjHLHPhyaHkuqGBP+q5/MXbP8xmpDKTfxlg3A4aPxublai9aAV0MYzT
WITbSA6+rfr58LCeTZG+ZV3xekkjdia1Qh1lk8cdrrIwpaS4QyZt+LBi/KQFoO2B
m+HHG7si8WP7FzXpeh6IuAIV5baT0d4amsLP8SGPuMTYfzJjygVnKiwleDpbpwyd
hjePDLpg4+KrMJQYOflLwuvAF6zIoc3XA+hzqceaN2Eu5VsgMh5mxnkbx5yz9Djm
3jtMoWoohVtimDeHZHjnuv1PPvmMYzQGbEUkKHBNvwapl0vOuJeHOMHNqkh0soJP
mGi1umttPQZwgcUjRLAiBleGcPEGV+Hudzj99stpz8C/MDa2jHdOgowALDUwTA==
-----END CERTIFICATE-----
