Certificate:
    Data:
        Version: 3 (0x2)
        Serial Number: 2 (0x2)
    Signature Algorithm: sha1WithRSAEncryption
        Issuer: C=IN, ST=WB, L=Kolkata, O=PL/emailAddress=admin@pl.com, CN=PL
        Validity
            Not Before: Sep  1 08:53:07 2016 GMT
            Not After : Sep  1 08:53:07 2017 GMT
        Subject: C=IN, ST=WB, O=PL, CN=user@pl.com/emailAddress=user@pl.com
        Subject Public Key Info:
            Public Key Algorithm: rsaEncryption
                Public-Key: (4096 bit)
                Modulus:
                    00:9f:c4:f7:75:26:75:4b:67:38:87:98:00:74:a2:
                    e0:75:5e:c6:04:17:1f:7b:ab:f6:ac:39:98:38:51:
                    a9:c5:f4:5b:7d:33:65:98:83:18:ba:64:21:38:3a:
                    7f:88:0b:13:b4:b3:96:61:64:23:c5:eb:c4:aa:8e:
                    b8:ac:92:d1:d5:aa:8f:af:10:0d:f5:7b:9c:c0:bb:
                    83:bf:8e:c1:84:95:dd:17:51:d8:07:ac:45:e3:f0:
                    a4:f4:66:17:52:ab:f9:0e:00:cd:38:1d:a5:c0:0f:
                    6d:b9:2d:fc:ba:8c:26:42:73:07:31:5c:e7:0e:57:
                    a2:31:11:a6:37:75:76:c7:7f:7b:90:65:93:ac:b6:
                    d2:89:87:71:d5:b1:d6:96:e1:68:08:6d:be:39:96:
                    2b:94:e1:c7:51:bd:e8:1a:40:d1:8e:a7:ed:63:8b:
                    c7:39:86:f0:9e:22:56:1f:e9:e7:f5:72:d3:62:78:
                    f4:5d:11:e2:44:e0:26:30:b7:59:ff:fe:80:8e:51:
                    82:b4:f9:d2:71:ac:38:07:9f:fc:9f:91:75:28:68:
                    31:84:5d:9d:67:a0:e0:a7:8a:19:28:93:4a:02:ae:
                    a6:5e:ae:3e:2a:b1:02:8d:9c:a4:61:bb:f5:18:61:
                    cb:93:ed:70:6e:50:00:d1:03:b6:ac:f7:0f:02:70:
                    59:37:9f:7a:ab:9a:13:1c:ab:84:06:37:90:db:22:
                    44:99:b8:f7:ec:ae:c0:c1:d0:99:d3:d8:ab:ec:7f:
                    4c:19:dd:22:1a:39:36:6c:45:be:52:1e:03:a0:06:
                    1d:8d:f0:80:71:ed:a9:da:5e:55:a9:98:ec:2a:d6:
                    18:6e:c8:41:1f:5a:39:61:69:9c:9e:16:8f:4f:01:
                    3d:4f:47:57:2c:9e:4d:5f:8c:53:00:3a:d2:8b:3f:
                    8d:cf:8d:82:af:3c:84:30:bf:69:84:fa:3c:35:18:
                    13:7d:64:8b:d8:f2:fe:40:fe:6b:f3:0a:fe:b3:c1:
                    22:5b:25:c6:74:e2:80:43:c5:0a:79:30:33:ec:4c:
                    50:08:91:0d:70:f5:38:c5:01:50:53:9a:4b:c8:bd:
                    78:45:bd:68:c0:c4:61:d3:75:6b:cd:71:7b:0b:0c:
                    25:93:19:ab:bc:e0:50:63:bb:1e:c9:dc:5f:de:b6:
                    89:83:b9:e7:f9:aa:d8:5b:e9:d0:e9:62:bb:71:1e:
                    d5:86:d6:5d:7a:30:32:73:2d:40:eb:d1:16:04:9a:
                    48:ce:a1:8a:1a:62:c7:c7:1b:33:9f:7a:8b:51:d9:
                    aa:c7:59:f0:6c:d3:2e:17:b1:f8:79:8c:95:88:3a:
                    35:32:b0:6f:3c:81:ac:91:44:d0:fa:d2:02:8f:dd:
                    3b:f5:67
                Exponent: 65537 (0x10001)
        X509v3 extensions:
            X509v3 Extended Key Usage: 
                TLS Web Client Authentication
    Signature Algorithm: sha1WithRSAEncryption
         69:e7:93:b7:c8:c5:d9:fe:b0:d1:01:a2:45:72:96:24:8f:18:
         fd:62:c1:f2:52:64:98:2e:53:1f:9c:e7:b8:b5:19:15:36:e8:
         19:36:51:0c:89:23:95:26:c8:87:cd:9e:7a:9c:cb:e3:a1:cf:
         c6:99:73:13:34:c1:c7:ae:15:07:6f:06:68:83:51:d4:1a:ac:
         d6:02:a2:82:3c:20:b7:e2:0e:61:32:f1:79:b0:55:3f:cc:9b:
         f7:a7:f5:f7:5b:74:7a:10:ea:dd:e4:42:54:f6:0f:1f:db:c2:
         38:a1:bd:57:44:0d:f7:1c:3f:42:72:f3:f8:67:fe:4c:55:f7:
         a8:c4:3d:44:cf:32:e1:ab:d0:69:20:70:7d:6d:47:3c:09:a9:
         fc:e5:27:f6:80:02:a8:67:a4:b7:8a:6e:46:ac:47:32:e5:f1:
         92:eb:f1:a3:e3:91:3a:4e:8c:ef:e2:57:48:4f:14:7e:29:eb:
         54:86:68:ee:3f:d4:2f:14:78:0f:ff:46:d6:c5:95:34:3e:f9:
         22:a1:70:2e:1d:5d:3f:f5:40:69:ca:18:9e:0f:5c:12:70:57:
         9c:ba:99:33:fb:74:85:08:19:40:84:16:b7:25:d4:a0:21:0d:
         fd:d3:93:90:bd:62:a1:61:6d:8d:3f:f5:29:86:86:8c:d1:23:
         ef:d1:43:7a:7a:8e:1e:e8:15:d6:2d:7e:5c:98:31:26:56:ca:
         4c:a7:bd:96:e3:9b:fa:01:cf:f7:c7:ae:ec:43:a6:41:db:2d:
         23:ab:ee:cb:07:e6:6e:0b:02:e2:20:15:15:47:21:ee:40:58:
         9d:d8:a2:df:07:54:be:e6:65:88:ed:df:9d:04:ad:60:d4:2f:
         36:e7:4d:65:79:0e:bf:3d:72:80:e1:90:9a:bf:2f:43:ec:ab:
         90:59:5a:6b:a9:b2:cd:b6:5e:5a:00:a1:cc:91:12:55:51:73:
         d8:e4:66:bd:df:2d:ad:b0:ec:02:94:e8:e2:b5:ae:96:ea:f3:
         50:25:fa:24:83:d1:55:a0:97:77:84:70:6b:6a:fe:0c:f7:a3:
         bf:dc:1a:f7:47:f7:aa:03:e1:4c:ab:4e:0d:39:a8:6f:f4:9d:
         cf:09:a0:54:d9:8e:e9:ac:0e:b2:3e:3b:0d:40:9d:a1:e7:34:
         7d:28:26:35:9e:8b:62:ed:ba:5d:24:a4:15:ff:64:3e:71:af:
         61:38:4a:fd:59:fe:fe:7d:f0:23:23:7f:94:1d:2f:49:2d:b7:
         c5:0f:b2:d2:56:3c:ff:80:9c:b1:76:c9:3d:9e:dd:b9:c8:8f:
         f3:64:66:c3:c5:d8:1d:79:a5:56:34:36:bf:c6:fa:09:34:53:
         68:4b:b0:17:bd:4b:e6:af
-----BEGIN CERTIFICATE-----
MIIFTjCCAzagAwIBAgIBAjANBgkqhkiG9w0BAQUFADBjMQswCQYDVQQGEwJJTjEL
MAkGA1UECBMCV0IxEDAOBgNVBAcTB0tvbGthdGExCzAJBgNVBAoTAlBMMRswGQYJ
KoZIhvcNAQkBFgxhZG1pbkBwbC5jb20xCzAJBgNVBAMTAlBMMB4XDTE2MDkwMTA4
NTMwN1oXDTE3MDkwMTA4NTMwN1owWTELMAkGA1UEBhMCSU4xCzAJBgNVBAgTAldC
MQswCQYDVQQKEwJQTDEUMBIGA1UEAxQLdXNlckBwbC5jb20xGjAYBgkqhkiG9w0B
CQEWC3VzZXJAcGwuY29tMIICIjANBgkqhkiG9w0BAQEFAAOCAg8AMIICCgKCAgEA
n8T3dSZ1S2c4h5gAdKLgdV7GBBcfe6v2rDmYOFGpxfRbfTNlmIMYumQhODp/iAsT
tLOWYWQjxevEqo64rJLR1aqPrxAN9XucwLuDv47BhJXdF1HYB6xF4/Ck9GYXUqv5
DgDNOB2lwA9tuS38uowmQnMHMVznDleiMRGmN3V2x397kGWTrLbSiYdx1bHWluFo
CG2+OZYrlOHHUb3oGkDRjqftY4vHOYbwniJWH+nn9XLTYnj0XRHiROAmMLdZ//6A
jlGCtPnScaw4B5/8n5F1KGgxhF2dZ6Dgp4oZKJNKAq6mXq4+KrECjZykYbv1GGHL
k+1wblAA0QO2rPcPAnBZN596q5oTHKuEBjeQ2yJEmbj37K7AwdCZ09ir7H9MGd0i
Gjk2bEW+Uh4DoAYdjfCAce2p2l5VqZjsKtYYbshBH1o5YWmcnhaPTwE9T0dXLJ5N
X4xTADrSiz+Nz42CrzyEML9phPo8NRgTfWSL2PL+QP5r8wr+s8EiWyXGdOKAQ8UK
eTAz7ExQCJENcPU4xQFQU5pLyL14Rb1owMRh03VrzXF7CwwlkxmrvOBQY7seydxf
3raJg7nn+arYW+nQ6WK7cR7VhtZdejAycy1A69EWBJpIzqGKGmLHxxszn3qLUdmq
x1nwbNMuF7H4eYyViDo1MrBvPIGskUTQ+tICj9079WcCAwEAAaMXMBUwEwYDVR0l
BAwwCgYIKwYBBQUHAwIwDQYJKoZIhvcNAQEFBQADggIBAGnnk7fIxdn+sNEBokVy
liSPGP1iwfJSZJguUx+c57i1GRU26Bk2UQyJI5UmyIfNnnqcy+Ohz8aZcxM0wceu
FQdvBmiDUdQarNYCooI8ILfiDmEy8XmwVT/Mm/en9fdbdHoQ6t3kQlT2Dx/bwjih
vVdEDfccP0Jy8/hn/kxV96jEPUTPMuGr0GkgcH1tRzwJqfzlJ/aAAqhnpLeKbkas
RzLl8ZLr8aPjkTpOjO/iV0hPFH4p61SGaO4/1C8UeA//RtbFlTQ++SKhcC4dXT/1
QGnKGJ4PXBJwV5y6mTP7dIUIGUCEFrcl1KAhDf3Tk5C9YqFhbY0/9SmGhozRI+/R
Q3p6jh7oFdYtflyYMSZWykynvZbjm/oBz/fHruxDpkHbLSOr7ssH5m4LAuIgFRVH
Ie5AWJ3Yot8HVL7mZYjt350ErWDULzbnTWV5Dr89coDhkJq/L0Psq5BZWmupss22
XloAocyRElVRc9jkZr3fLa2w7AKU6OK1rpbq81Al+iSD0VWgl3eEcGtq/gz3o7/c
GvdH96oD4UyrTg05qG/0nc8JoFTZjumsDrI+Ow1AnaHnNH0oJjWei2Ltul0kpBX/
ZD5xr2E4Sv1Z/v598CMjf5QdL0ktt8UPstJWPP+AnLF2yT2e3bnIj/NkZsPF2B15
pVY0Nr/G+gk0U2hLsBe9S+av
-----END CERTIFICATE-----
