Certificate:
    Data:
        Version: 3 (0x2)
        Serial Number: 1 (0x1)
    Signature Algorithm: sha1WithRSAEncryption
        Issuer: C=IN, ST=WB, L=Kolkata, O=PL/emailAddress=admin@pl.com, CN=PL
        Validity
            Not Before: Sep  1 08:50:02 2016 GMT
            Not After : Aug 31 08:50:02 2021 GMT
        Subject: C=IN, ST=WB, O=PL, CN=PL/emailAddress=admin@pl.com
        Subject Public Key Info:
            Public Key Algorithm: rsaEncryption
                Public-Key: (4096 bit)
                Modulus:
                    00:b8:b4:96:e7:99:84:d0:ad:e3:e4:4f:3d:76:f1:
                    f4:b2:88:c9:68:f2:8b:ab:d7:20:a4:e6:91:a8:07:
                    4d:60:54:64:c9:05:e7:14:bd:f0:9e:b6:2b:ee:ce:
                    4a:b6:31:23:d6:f3:28:93:b3:e7:b4:c1:76:4d:4d:
                    0e:18:1e:38:5e:18:c5:e6:42:e7:1e:6a:ac:01:36:
                    2f:69:d7:0b:1e:d9:fb:18:2f:7d:7c:c0:6a:5d:dd:
                    6a:b7:7a:ba:e5:8b:38:f0:b7:9d:e2:fd:5f:72:3f:
                    e7:62:1e:1c:7e:0c:7e:0f:0a:b3:44:89:2a:d6:50:
                    ab:c5:57:0c:d4:7a:4b:75:f3:ea:a0:f2:e8:97:14:
                    2d:60:12:3b:56:75:32:c3:ff:3c:5d:3a:1f:54:ee:
                    fa:06:b1:b5:40:3c:5a:a9:ae:a4:f8:6e:3e:44:64:
                    78:ae:2e:d6:d8:9d:fb:54:2d:b2:84:dc:01:22:56:
                    66:ff:74:ff:84:1f:35:63:d3:43:c7:34:bd:7f:4b:
                    6d:b5:8e:c4:05:72:1c:4d:fa:fb:46:39:85:f6:0b:
                    14:f2:57:cd:4b:85:9c:06:c4:33:02:d7:8d:60:84:
                    8b:47:2b:dd:a4:3c:ed:87:00:dd:fa:39:7b:c0:0e:
                    c0:62:ea:f5:a1:68:41:7a:0a:08:55:f5:3c:37:3d:
                    36:1b:aa:16:f1:cc:db:24:d3:6f:1f:d2:0d:ed:b5:
                    0b:ca:ec:6f:d1:14:70:6e:5d:31:7b:e6:4b:f5:c0:
                    c2:c7:d4:bd:e2:59:5d:70:be:03:42:ff:c0:61:61:
                    ca:6a:dc:be:38:58:29:1b:3d:88:e8:37:9c:af:49:
                    33:fb:f1:f0:6c:e2:f5:64:a9:8a:c4:24:ec:b6:ea:
                    05:02:ee:87:56:8a:ab:6d:61:f7:df:4a:a7:36:b3:
                    74:51:0a:27:8b:57:a3:92:6f:38:a9:48:cb:39:67:
                    d9:12:51:0e:41:61:a3:76:ff:80:6a:b1:df:a7:aa:
                    4a:a1:68:45:14:58:5b:57:73:3e:62:0f:18:c3:35:
                    27:13:18:c3:5c:ad:a5:5e:9a:4c:85:02:ee:3e:d0:
                    06:1d:86:e2:53:b6:46:a8:25:7a:bd:23:2a:f0:a3:
                    b2:58:b6:ec:1d:c9:66:78:e4:b6:b0:d0:21:2f:0f:
                    36:e3:5d:16:d0:15:6e:77:ac:db:c5:b3:9d:c7:64:
                    14:78:dd:71:35:cc:6b:18:03:89:ba:4c:dd:70:2e:
                    45:96:74:97:ee:4e:68:b6:0e:52:60:1b:c4:84:1d:
                    66:d9:cb:6e:b5:87:a3:f1:8d:dd:e1:46:47:35:88:
                    ed:50:95:09:62:51:4e:a3:14:9c:69:7c:63:55:1c:
                    b5:d4:15
                Exponent: 65537 (0x10001)
        X509v3 extensions:
            X509v3 Extended Key Usage: 
                TLS Web Server Authentication
    Signature Algorithm: sha1WithRSAEncryption
         32:95:94:fb:9a:80:2a:f7:31:2c:44:4b:e6:61:26:68:36:14:
         b7:2f:eb:a0:be:09:fb:46:c8:fd:0e:e4:9d:4b:87:e0:31:e3:
         a3:41:24:5e:56:bd:8d:fb:49:0c:83:cc:d4:11:97:9d:b4:e0:
         f5:02:ec:00:eb:69:f7:9c:c8:5e:d9:f7:1f:4d:4f:04:f0:51:
         61:56:2e:10:bb:c7:2a:b8:5f:6f:fe:af:a0:5e:ea:fa:4e:75:
         a0:77:6a:ef:9d:5d:a2:c0:92:e1:38:e4:58:6c:92:7f:59:9e:
         55:39:77:8a:df:e8:7c:c6:97:48:30:f1:2e:fb:a9:7e:f5:d4:
         e1:04:f7:fe:e1:12:71:42:40:46:0f:b1:3b:ad:f5:2c:b3:dd:
         1d:6a:c2:85:8f:60:50:68:80:b1:67:08:6b:09:d7:59:08:6d:
         cd:05:10:b6:e8:cf:27:d9:2b:18:44:ae:72:4d:74:ed:74:a8:
         b8:08:0f:01:8a:19:88:03:de:bd:c0:88:e7:49:86:6d:40:72:
         74:40:df:fb:82:ef:ac:fc:44:a7:3b:9b:35:f5:b9:10:66:02:
         92:3b:8c:fd:c4:97:92:b7:f8:81:ee:88:9a:4e:f4:4e:51:86:
         59:8d:2a:58:38:1d:24:2d:e7:47:34:da:ea:33:80:c7:7b:8a:
         b0:25:5a:32:2b:c0:5e:48:84:f3:94:e4:32:9c:2e:87:8b:96:
         3c:50:00:2f:6d:aa:2e:da:44:6a:44:df:fe:2c:a1:53:e6:3d:
         0b:60:ed:8a:4d:02:90:fb:28:5f:ff:0d:17:87:34:30:a2:38:
         da:9b:c5:79:af:e9:69:08:74:1e:72:e3:4b:4e:87:5d:f5:bb:
         52:f4:22:6d:69:85:54:87:a9:63:6e:1e:63:b2:f9:c3:40:89:
         96:f0:52:65:47:3f:b0:fc:30:1c:d2:c3:4f:4f:0a:aa:16:c8:
         0c:ad:1f:69:a3:b5:06:28:35:bd:65:6c:8b:5b:ed:c1:a7:11:
         4f:4a:b8:fc:62:c0:51:8e:b9:e4:5d:08:4e:b8:95:12:2e:fb:
         c3:40:83:56:6b:70:de:66:cd:89:17:f0:74:af:ce:21:6b:b1:
         7b:2a:54:32:7d:36:b1:06:d7:91:af:17:9d:04:5f:bd:3f:8d:
         b2:36:aa:5e:d8:44:e6:3b:b7:3a:23:5e:24:33:63:0d:51:00:
         09:41:99:ed:8a:ac:7d:b6:8b:64:2b:70:0a:e8:ac:a3:df:8d:
         f2:96:25:fc:35:41:98:27:19:a1:fa:c3:45:96:1b:88:88:ee:
         13:6e:8b:ab:ff:17:b2:cc:e0:9f:fa:7c:24:7b:19:e5:0d:8b:
         1a:4e:c8:6e:1e:b7:10:05
-----BEGIN CERTIFICATE-----
MIIFRjCCAy6gAwIBAgIBATANBgkqhkiG9w0BAQUFADBjMQswCQYDVQQGEwJJTjEL
MAkGA1UECBMCV0IxEDAOBgNVBAcTB0tvbGthdGExCzAJBgNVBAoTAlBMMRswGQYJ
KoZIhvcNAQkBFgxhZG1pbkBwbC5jb20xCzAJBgNVBAMTAlBMMB4XDTE2MDkwMTA4
NTAwMloXDTIxMDgzMTA4NTAwMlowUTELMAkGA1UEBhMCSU4xCzAJBgNVBAgTAldC
MQswCQYDVQQKEwJQTDELMAkGA1UEAxMCUEwxGzAZBgkqhkiG9w0BCQEWDGFkbWlu
QHBsLmNvbTCCAiIwDQYJKoZIhvcNAQEBBQADggIPADCCAgoCggIBALi0lueZhNCt
4+RPPXbx9LKIyWjyi6vXIKTmkagHTWBUZMkF5xS98J62K+7OSrYxI9bzKJOz57TB
dk1NDhgeOF4YxeZC5x5qrAE2L2nXCx7Z+xgvfXzAal3dard6uuWLOPC3neL9X3I/
52IeHH4Mfg8Ks0SJKtZQq8VXDNR6S3Xz6qDy6JcULWASO1Z1MsP/PF06H1Tu+gax
tUA8WqmupPhuPkRkeK4u1tid+1QtsoTcASJWZv90/4QfNWPTQ8c0vX9LbbWOxAVy
HE36+0Y5hfYLFPJXzUuFnAbEMwLXjWCEi0cr3aQ87YcA3fo5e8AOwGLq9aFoQXoK
CFX1PDc9NhuqFvHM2yTTbx/SDe21C8rsb9EUcG5dMXvmS/XAwsfUveJZXXC+A0L/
wGFhymrcvjhYKRs9iOg3nK9JM/vx8Gzi9WSpisQk7LbqBQLuh1aKq21h999Kpzaz
dFEKJ4tXo5JvOKlIyzln2RJRDkFho3b/gGqx36eqSqFoRRRYW1dzPmIPGMM1JxMY
w1ytpV6aTIUC7j7QBh2G4lO2Rqgler0jKvCjsli27B3JZnjktrDQIS8PNuNdFtAV
bnes28WzncdkFHjdcTXMaxgDibpM3XAuRZZ0l+5OaLYOUmAbxIQdZtnLbrWHo/GN
3eFGRzWI7VCVCWJRTqMUnGl8Y1UctdQVAgMBAAGjFzAVMBMGA1UdJQQMMAoGCCsG
AQUFBwMBMA0GCSqGSIb3DQEBBQUAA4ICAQAylZT7moAq9zEsREvmYSZoNhS3L+ug
vgn7Rsj9DuSdS4fgMeOjQSReVr2N+0kMg8zUEZedtOD1AuwA62n3nMhe2fcfTU8E
8FFhVi4Qu8cquF9v/q+gXur6TnWgd2rvnV2iwJLhOORYbJJ/WZ5VOXeK3+h8xpdI
MPEu+6l+9dThBPf+4RJxQkBGD7E7rfUss90dasKFj2BQaICxZwhrCddZCG3NBRC2
6M8n2SsYRK5yTXTtdKi4CA8BihmIA969wIjnSYZtQHJ0QN/7gu+s/ESnO5s19bkQ
ZgKSO4z9xJeSt/iB7oiaTvROUYZZjSpYOB0kLedHNNrqM4DHe4qwJVoyK8BeSITz
lOQynC6Hi5Y8UAAvbaou2kRqRN/+LKFT5j0LYO2KTQKQ+yhf/w0XhzQwojjam8V5
r+lpCHQecuNLTodd9btS9CJtaYVUh6ljbh5jsvnDQImW8FJlRz+w/DAc0sNPTwqq
FsgMrR9po7UGKDW9ZWyLW+3BpxFPSrj8YsBRjrnkXQhOuJUSLvvDQINWa3DeZs2J
F/B0r84ha7F7KlQyfTaxBteRrxedBF+9P42yNqpe2ETmO7c6I14kM2MNUQAJQZnt
iqx9totkK3AK6Kyj343yliX8NUGYJxmh+sNFlhuIiO4Tbour/xeyzOCf+nwkexnl
DYsaTshuHrcQBQ==
-----END CERTIFICATE-----
